ccopy_reg
_reconstructor
p0
(cIndex
Index
p1
c__builtin__
object
p2
Ntp3
Rp4
(dp5
S'_documents'
p6
(lp7
S'1.html'
p8
aS'10.html'
p9
aS'11.html'
p10
aS'12.html'
p11
aS'13.html'
p12
aS'14.html'
p13
aS'18.html'
p14
aS'19.html'
p15
aS'22.html'
p16
aS'23.html'
p17
aS'24.html'
p18
aS'27.html'
p19
aS'29.html'
p20
aS'30.html'
p21
aS'36.html'
p22
aS'37.html'
p23
aS'38.html'
p24
aS'40.html'
p25
aS'41.html'
p26
aS'42.html'
p27
aS'44.html'
p28
aS'45.html'
p29
aS'46.html'
p30
aS'47.html'
p31
aS'48.html'
p32
aS'49.html'
p33
aS'5.html'
p34
aS'50.html'
p35
aS'53.html'
p36
aS'56.html'
p37
aS'57.html'
p38
aS'58.html'
p39
aS'59.html'
p40
aS'6.html'
p41
aS'64.html'
p42
aS'65.html'
p43
aS'66.html'
p44
aS'68.html'
p45
aS'69.html'
p46
aS'71.html'
p47
aS'74.html'
p48
aS'75.html'
p49
aS'76.html'
p50
aS'77.html'
p51
aS'78.html'
p52
aS'80.html'
p53
aS'81.html'
p54
aS'82.html'
p55
aS'83.html'
p56
aS'85.html'
p57
aS'86.html'
p58
aS'87.html'
p59
aS'89.html'
p60
aS'9.html'
p61
aS'92.html'
p62
aS'93.html'
p63
aS'94.html'
p64
aS'95.html'
p65
aS'96.html'
p66
aS'97.html'
p67
aS'98.html'
p68
aS'99.html'
p69
asS'_index'
p70
ccollections
defaultdict
p71
(cIndex
dd
p72
tp73
Rp74
S'limited'
p75
g71
(c__builtin__
int
p76
tp77
Rp78
I1
I2
ssS'336.63'
p79
g71
(g76
tp80
Rp81
I80
I1
ssS'cinci'
p82
g71
(g76
tp83
Rp84
I97
I1
ssS'yellow'
p85
g71
(g76
tp86
Rp87
I97
I1
ssS'four'
p88
g71
(g76
tp89
Rp90
I24
I1
sI19
I1
sI13
I1
ssS'1.12'
p91
g71
(g76
tp92
Rp93
I65
I1
ssS'aug'
p94
g71
(g76
tp95
Rp96
I1
I1
ssS'1.11'
p97
g71
(g76
tp98
Rp99
I93
I1
ssS'1.19'
p100
g71
(g76
tp101
Rp102
I11
I1
sI45
I1
ssS'340'
p103
g71
(g76
tp104
Rp105
I1
I1
ssS'voted'
p106
g71
(g76
tp107
Rp108
I9
I1
ssS'under'
p109
g71
(g76
tp110
Rp111
I1
I1
sI10
I1
sI57
I1
sI29
I1
sI47
I1
ssS'45.1'
p112
g71
(g76
tp113
Rp114
I6
I1
ssS'sellers'
p115
g71
(g76
tp116
Rp117
I29
I1
ssS'affect'
p118
g71
(g76
tp119
Rp120
I75
I1
ssS'exporters'
p121
g71
(g76
tp122
Rp123
I1
I1
sI75
I2
ssS'portland/'
p124
g71
(g76
tp125
Rp126
I97
I1
ssS'companies'
p127
g71
(g76
tp128
Rp129
I74
I1
sI68
I1
sI45
I2
ssS'wednesday'
p130
g71
(g76
tp131
Rp132
I81
I2
ssS'humidity'
p133
g71
(g76
tp134
Rp135
I1
I1
ssS'ups'
p136
g71
(g76
tp137
Rp138
I23
I1
ssS'mpls'
p139
g71
(g76
tp140
Rp141
I97
I1
ssS'estimates'
p142
g71
(g76
tp143
Rp144
I1
I1
ssS'likely'
p145
g71
(g76
tp146
Rp147
I12
I1
ssS'street'
p148
g71
(g76
tp149
Rp150
I45
I1
ssS'borrowings'
p151
g71
(g76
tp152
Rp153
I81
I4
sI94
I2
sI78
I2
ssS'estimated'
p154
g71
(g76
tp155
Rp156
I1
I1
sI27
I1
ssS'established'
p157
g71
(g76
tp158
Rp159
I97
I1
ssS'panama'
p160
g71
(g76
tp161
Rp162
I49
I2
ssS'liberty'
p163
g71
(g76
tp164
Rp165
I83
I1
ssS'spokesman'
p166
g71
(g76
tp167
Rp168
I81
I2
ssS'new'
p169
g71
(g76
tp170
Rp171
I96
I1
sI1
I9
sI80
I3
sI42
I2
sI75
I2
sI78
I2
sI47
I1
sI48
I1
sI81
I1
sI23
I1
sI56
I1
sI57
I1
ssS'net'
p172
g71
(g76
tp173
Rp174
I65
I3
sI66
I4
sI37
I2
sI38
I3
sI41
I4
sI74
I5
sI11
I2
sI12
I1
sI13
I1
sI14
I3
sI82
I2
sI24
I2
sI98
I3
sI27
I3
sI93
I2
sI95
I2
ssS'increasing'
p175
g71
(g76
tp176
Rp177
I59
I1
ssS'2,285,000'
p178
g71
(g76
tp179
Rp180
I13
I1
ssS'told'
p181
g71
(g76
tp182
Rp183
I40
I1
sI18
I2
ssS'splinter'
p184
g71
(g76
tp185
Rp186
I75
I1
ssS'reported'
p187
g71
(g76
tp188
Rp189
I5
I1
sI40
I1
sI46
I2
sI18
I1
sI23
I1
sI56
I1
ssS'109'
p190
g71
(g76
tp191
Rp192
I47
I1
ssS'affiliated'
p193
g71
(g76
tp194
Rp195
I96
I1
ssS'100'
p196
g71
(g76
tp197
Rp198
I59
I1
sI5
I1
ssS'dry'
p199
g71
(g76
tp200
Rp201
I1
I1
sI57
I2
ssS'1.10'
p202
g71
(g76
tp203
Rp204
I40
I1
ssS'0.39'
p205
g71
(g76
tp206
Rp207
I1
I1
ssS'reports'
p208
g71
(g76
tp209
Rp210
I49
I1
sI12
I1
ssS'aug/sept'
p211
g71
(g76
tp212
Rp213
I1
I3
ssS'credit'
p214
g71
(g76
tp215
Rp216
I57
I3
sI19
I1
sI97
I1
ssS'analysts'
p217
g71
(g76
tp218
Rp219
I18
I2
ssS'postponed'
p220
g71
(g76
tp221
Rp222
I42
I1
ssS'projection'
p223
g71
(g76
tp224
Rp225
I18
I1
ssS'owed'
p226
g71
(g76
tp227
Rp228
I64
I1
ssS'569.3'
p229
g71
(g76
tp230
Rp231
I13
I1
ssS'amarlo/'
p232
g71
(g76
tp233
Rp234
I97
I1
ssS'soybean'
p235
g71
(g76
tp236
Rp237
I69
I3
sI6
I3
ssS'total'
p238
g71
(g76
tp239
Rp240
I96
I1
sI1
I3
sI10
I1
sI69
I1
sI6
I13
ssS'unit'
p241
g71
(g76
tp242
Rp243
I97
I1
sI50
I1
sI29
I1
sI93
I1
ssS'would'
p244
g71
(g76
tp245
Rp246
I1
I1
sI44
I1
sI10
I3
sI75
I1
sI12
I1
sI45
I2
sI18
I1
sI23
I1
sI42
I1
ssS'marine'
p247
g71
(g76
tp248
Rp249
I68
I1
ssS'three-for-two'
p250
g71
(g76
tp251
Rp252
I23
I1
ssS'noting'
p253
g71
(g76
tp254
Rp255
I12
I1
ssS'call'
p256
g71
(g76
tp257
Rp258
I59
I2
sI5
I2
ssS'asset'
p259
g71
(g76
tp260
Rp261
I44
I1
ssS'recommend'
p262
g71
(g76
tp263
Rp264
I9
I1
ssS'atico'
p265
g71
(g76
tp266
Rp267
I74
I2
ssS'until'
p268
g71
(g76
tp269
Rp270
I42
I1
ssS'71.6'
p271
g71
(g76
tp272
Rp273
I50
I1
ssS'it'
p274
g71
(g76
tp275
Rp276
I64
I2
sI1
I1
sI50
I1
sI68
I1
sI69
I1
sI40
I1
sI44
I1
sI10
I4
sI75
I1
sI12
I3
sI45
I4
sI96
I1
sI47
I1
sI49
I1
sI18
I2
sI19
I1
sI22
I1
sI56
I2
sI57
I1
ssS'1,035,000'
p277
g71
(g76
tp278
Rp279
I93
I1
ssS'91'
p280
g71
(g76
tp281
Rp282
I58
I1
ssS'five-day'
p283
g71
(g76
tp284
Rp285
I5
I1
ssS'92'
p286
g71
(g76
tp287
Rp288
I58
I1
ssS'tariff'
p289
g71
(g76
tp290
Rp291
I59
I1
ssS'circumstances'
p292
g71
(g76
tp293
Rp294
I10
I1
ssS'carnival'
p295
g71
(g76
tp296
Rp297
I1
I1
ssS'rights'
p298
g71
(g76
tp299
Rp300
I10
I1
ssS'2.64'
p301
g71
(g76
tp302
Rp303
I97
I1
ssS'2.65'
p304
g71
(g76
tp305
Rp306
I97
I2
sI5
I1
ssS'plunged'
p307
g71
(g76
tp308
Rp309
I47
I1
ssS'2.63'
p310
g71
(g76
tp311
Rp312
I97
I1
ssS'2.60'
p313
g71
(g76
tp314
Rp315
I97
I1
ssS'2.61'
p316
g71
(g76
tp317
Rp318
I97
I1
ssS'revenues'
p319
g71
(g76
tp320
Rp321
I56
I1
ssS'2.86'
p322
g71
(g76
tp323
Rp324
I97
I1
ssS'2.87'
p325
g71
(g76
tp326
Rp327
I97
I1
ssS'cited'
p328
g71
(g76
tp329
Rp330
I23
I1
ssS'currency'
p331
g71
(g76
tp332
Rp333
I1
I2
sI47
I1
ssS'foods'
p334
g71
(g76
tp335
Rp336
I18
I3
ssS'want'
p337
g71
(g76
tp338
Rp339
I45
I1
ssS'attract'
p340
g71
(g76
tp341
Rp342
I45
I1
ssS'cites'
p343
g71
(g76
tp344
Rp345
I56
I1
ssS'51.6'
p346
g71
(g76
tp347
Rp348
I13
I1
ssS'51.7'
p349
g71
(g76
tp350
Rp351
I13
I1
ssS'end'
p352
g71
(g76
tp353
Rp354
I1
I1
sI49
I2
ssS'provide'
p355
g71
(g76
tp356
Rp357
I40
I1
ssS'gats'
p358
g71
(g76
tp359
Rp360
I64
I1
ssS'how'
p361
g71
(g76
tp362
Rp363
I1
I2
ssS'77.4'
p364
g71
(g76
tp365
Rp366
I27
I1
ssS'widespread'
p367
g71
(g76
tp368
Rp369
I47
I2
ssS'after'
p370
g71
(g76
tp371
Rp372
I1
I1
sI5
I5
sI41
I2
sI75
I1
sI13
I1
sI18
I1
ssS'm-1'
p373
g71
(g76
tp374
Rp375
I92
I2
ssS'260,500'
p376
g71
(g76
tp377
Rp378
I96
I1
ssS'customs'
p379
g71
(g76
tp380
Rp381
I46
I1
ssS'president'
p382
g71
(g76
tp383
Rp384
I40
I1
sI18
I1
ssS'472.3'
p385
g71
(g76
tp386
Rp387
I11
I1
ssS'purchase'
p388
g71
(g76
tp389
Rp390
I10
I1
ssS'829,000'
p391
g71
(g76
tp392
Rp393
I38
I1
ssS'third'
p394
g71
(g76
tp395
Rp396
I23
I1
ssS'amid'
p397
g71
(g76
tp398
Rp399
I47
I1
ssS'lou'
p400
g71
(g76
tp401
Rp402
I97
I2
ssS'expenses'
p403
g71
(g76
tp404
Rp405
I12
I1
ssS'1,428,000'
p406
g71
(g76
tp407
Rp408
I38
I2
ssS'enter'
p409
g71
(g76
tp410
Rp411
I49
I1
ssS'ivaco'
p412
g71
(g76
tp413
Rp414
I93
I1
ssS'operations'
p415
g71
(g76
tp416
Rp417
I64
I1
sI49
I1
sI83
I1
sI23
I1
ssS'2,227,000'
p418
g71
(g76
tp419
Rp420
I13
I1
ssS'over'
p421
g71
(g76
tp422
Rp423
I56
I1
sI1
I1
sI49
I1
ssS'expects'
p424
g71
(g76
tp425
Rp426
I40
I1
sI49
I1
sI18
I1
ssS'12.2'
p427
g71
(g76
tp428
Rp429
I64
I1
ssS'12.1'
p430
g71
(g76
tp431
Rp432
I87
I1
ssS'6.4'
p433
g71
(g76
tp434
Rp435
I96
I1
sI1
I1
ssS'6.3'
p436
g71
(g76
tp437
Rp438
I6
I1
ssS'12.6'
p439
g71
(g76
tp440
Rp441
I14
I1
ssS'6.1'
p442
g71
(g76
tp443
Rp444
I82
I1
ssS'japan'
p445
g71
(g76
tp446
Rp447
I18
I1
ssS'owens'
p448
g71
(g76
tp449
Rp450
I36
I1
ssS'before'
p451
g71
(g76
tp452
Rp453
I75
I1
sI45
I1
ssS'10.1'
p454
g71
(g76
tp455
Rp456
I45
I1
ssS'10.0'
p457
g71
(g76
tp458
Rp459
I96
I1
sI6
I2
ssS'10.4'
p460
g71
(g76
tp461
Rp462
I87
I1
ssS'fit'
p463
g71
(g76
tp464
Rp465
I1
I1
ssS'10.6'
p466
g71
(g76
tp467
Rp468
I74
I1
ssS'10.9'
p469
g71
(g76
tp470
Rp471
I98
I1
ssS','
p472
g71
(g76
tp473
Rp474
I1
I20
sI5
I5
sI6
I48
sI9
I1
sI10
I10
sI11
I1
sI12
I10
sI18
I10
sI19
I5
sI22
I3
sI23
I9
sI24
I3
sI29
I4
sI40
I5
sI41
I2
sI42
I8
sI44
I1
sI45
I14
sI46
I5
sI47
I7
sI48
I1
sI49
I2
sI50
I1
sI56
I9
sI57
I3
sI58
I2
sI59
I6
sI64
I1
sI68
I4
sI69
I1
sI74
I3
sI75
I5
sI76
I2
sI77
I2
sI80
I4
sI81
I2
sI83
I1
sI92
I2
sI94
I2
sI95
I2
sI96
I6
sI97
I2
ssS'denver'
p475
g71
(g76
tp476
Rp477
I97
I2
ssS'better'
p478
g71
(g76
tp479
Rp480
I40
I1
ssS'durum'
p481
g71
(g76
tp482
Rp483
I97
I2
ssS'matured'
p484
g71
(g76
tp485
Rp486
I5
I1
ssS'16.1'
p487
g71
(g76
tp488
Rp489
I24
I1
ssS'16.0'
p490
g71
(g76
tp491
Rp492
I74
I1
ssS'weeks'
p493
g71
(g76
tp494
Rp495
I1
I1
sI95
I2
ssS'16.9'
p496
g71
(g76
tp497
Rp498
I74
I1
ssS'inventory'
p499
g71
(g76
tp500
Rp501
I19
I1
ssS'versus'
p502
g71
(g76
tp503
Rp504
I59
I1
sI46
I1
ssS'then'
p505
g71
(g76
tp506
Rp507
I47
I1
ssS'coffee'
p508
g71
(g76
tp509
Rp510
I42
I2
sI75
I1
ssS'.125'
p511
g71
(g76
tp512
Rp513
I10
I1
ssS'effects'
p514
g71
(g76
tp515
Rp516
I18
I1
ssS'they'
p517
g71
(g76
tp518
Rp519
I96
I1
sI42
I1
sI75
I2
sI45
I1
ssS'bank'
p520
g71
(g76
tp521
Rp522
I80
I1
sI78
I2
sI47
I1
sI48
I1
sI81
I2
sI94
I2
sI95
I2
ssS'bread'
p523
g71
(g76
tp524
Rp525
I6
I1
ssS'1.00'
p526
g71
(g76
tp527
Rp528
I23
I1
ssS'1.04'
p529
g71
(g76
tp530
Rp531
I93
I1
ssS'1.06'
p532
g71
(g76
tp533
Rp534
I1
I1
sI38
I1
ssS'nspa'
p535
g71
(g76
tp536
Rp537
I69
I4
ssS'each'
p538
g71
(g76
tp539
Rp540
I23
I1
ssS'went'
p541
g71
(g76
tp542
Rp543
I1
I1
ssS'375'
p544
g71
(g76
tp545
Rp546
I80
I1
sI76
I2
ssS'meal'
p547
g71
(g76
tp548
Rp549
I69
I1
ssS'212.5'
p550
g71
(g76
tp551
Rp552
I58
I1
ssS'financial'
p553
g71
(g76
tp554
Rp555
I74
I1
ssS'3.25-y'
p556
g71
(g76
tp557
Rp558
I5
I1
ssS'trading'
p559
g71
(g76
tp560
Rp561
I45
I1
ssS'substantially'
p562
g71
(g76
tp563
Rp564
I12
I1
sI23
I1
ssS'merchants'
p565
g71
(g76
tp566
Rp567
I59
I1
ssS'8,843,000'
p568
g71
(g76
tp569
Rp570
I41
I1
ssS'vessels'
p571
g71
(g76
tp572
Rp573
I49
I1
sI68
I1
ssS"stock's"
p574
g71
(g76
tp575
Rp576
I10
I1
ssS'surprise'
p577
g71
(g76
tp578
Rp579
I45
I2
ssS'u.s.'
p580
g71
(g76
tp581
Rp582
I1
I2
sI5
I1
sI97
I1
sI76
I2
sI44
I3
sI45
I1
sI46
I2
sI49
I1
sI19
I1
sI57
I1
sI58
I1
sI95
I2
sI92
I2
sI94
I2
sI69
I2
ssS'free'
p583
g71
(g76
tp584
Rp585
I95
I2
ssS'standard'
p586
g71
(g76
tp587
Rp588
I40
I3
ssS'servicemaster'
p589
g71
(g76
tp590
Rp591
I45
I1
ssS'competes'
p592
g71
(g76
tp593
Rp594
I45
I1
ssS'prior-year'
p595
g71
(g76
tp596
Rp597
I56
I1
ssS'days'
p598
g71
(g76
tp599
Rp600
I49
I1
ssS'creates'
p601
g71
(g76
tp602
Rp603
I57
I1
ssS'shipped'
p604
g71
(g76
tp605
Rp606
I57
I1
ssS'kingdom'
p607
g71
(g76
tp608
Rp609
I18
I1
ssS'y-dlrs'
p610
g71
(g76
tp611
Rp612
I5
I1
ssS'turben'
p613
g71
(g76
tp614
Rp615
I45
I1
ssS'industrial'
p616
g71
(g76
tp617
Rp618
I80
I1
ssS'grade'
p619
g71
(g76
tp620
Rp621
I97
I1
ssS'primary'
p622
g71
(g76
tp623
Rp624
I82
I1
ssS'another'
p625
g71
(g76
tp626
Rp627
I56
I1
sI45
I1
ssS'service'
p628
g71
(g76
tp629
Rp630
I97
I1
sI66
I1
sI44
I1
sI46
I1
sI47
I1
ssS'442,000'
p631
g71
(g76
tp632
Rp633
I13
I1
ssS'rates'
p634
g71
(g76
tp635
Rp636
I40
I1
sI59
I2
sI5
I2
sI45
I1
sI23
I1
ssS'too'
p637
g71
(g76
tp638
Rp639
I18
I1
ssS'percentage'
p640
g71
(g76
tp641
Rp642
I59
I1
ssS'john'
p643
g71
(g76
tp644
Rp645
I29
I1
ssS'29-3/8'
p646
g71
(g76
tp647
Rp648
I45
I1
ssS'butter'
p649
g71
(g76
tp650
Rp651
I1
I2
ssS'wastes'
p652
g71
(g76
tp653
Rp654
I45
I1
ssS'distance'
p655
g71
(g76
tp656
Rp657
I82
I2
ssS'target'
p658
g71
(g76
tp659
Rp660
I47
I1
ssS'second'
p661
g71
(g76
tp662
Rp663
I56
I1
sI81
I1
sI23
I1
ssS'project'
p664
g71
(g76
tp665
Rp666
I18
I1
ssS'327.2'
p667
g71
(g76
tp668
Rp669
I11
I1
ssS'bidder'
p670
g71
(g76
tp671
Rp672
I45
I1
ssS'acquisition'
p673
g71
(g76
tp674
Rp675
I18
I1
sI74
I1
ssS'18.6'
p676
g71
(g76
tp677
Rp678
I40
I1
ssS'lbs'
p679
g71
(g76
tp680
Rp681
I5
I1
ssS'sees'
p682
g71
(g76
tp683
Rp684
I40
I1
sI64
I1
sI18
I1
ssS'500,000'
p685
g71
(g76
tp686
Rp687
I57
I1
ssS'5.05'
p688
g71
(g76
tp689
Rp690
I97
I2
ssS'2.78'
p691
g71
(g76
tp692
Rp693
I97
I1
ssS'chem'
p694
g71
(g76
tp695
Rp696
I45
I2
ssS'2.71'
p697
g71
(g76
tp698
Rp699
I97
I2
ssS'2.72'
p700
g71
(g76
tp701
Rp702
I65
I1
ssS'-'
p703
g71
(g76
tp704
Rp705
I97
I1
sI59
I18
sI5
I2
sI46
I1
ssS'peoria'
p706
g71
(g76
tp707
Rp708
I97
I2
ssS'shipments'
p709
g71
(g76
tp710
Rp711
I6
I1
ssS'2.96'
p712
g71
(g76
tp713
Rp714
I97
I1
ssS'2.92'
p715
g71
(g76
tp716
Rp717
I97
I1
ssS'2.91'
p718
g71
(g76
tp719
Rp720
I97
I1
ssS'2.90'
p721
g71
(g76
tp722
Rp723
I97
I1
ssS'memphis'
p724
g71
(g76
tp725
Rp726
I97
I2
ssS'share-out'
p727
g71
(g76
tp728
Rp729
I75
I1
ssS'2.99'
p730
g71
(g76
tp731
Rp732
I97
I1
ssS'2.98'
p733
g71
(g76
tp734
Rp735
I97
I3
ssS'involving'
p736
g71
(g76
tp737
Rp738
I10
I1
ssS'entry'
p739
g71
(g76
tp740
Rp741
I18
I1
ssS'drought'
p742
g71
(g76
tp743
Rp744
I1
I1
ssS'zealand'
p745
g71
(g76
tp746
Rp747
I48
I1
ssS'calculated'
p748
g71
(g76
tp749
Rp750
I13
I1
ssS'flow'
p751
g71
(g76
tp752
Rp753
I45
I1
sI23
I2
ssS'48.0'
p754
g71
(g76
tp755
Rp756
I6
I2
ssS'points'
p757
g71
(g76
tp758
Rp759
I59
I4
ssS'48.6'
p760
g71
(g76
tp761
Rp762
I6
I1
ssS'48.7'
p763
g71
(g76
tp764
Rp765
I6
I1
ssS'dot'
p766
g71
(g76
tp767
Rp768
I10
I1
ssS'reserve'
p769
g71
(g76
tp770
Rp771
I48
I1
sI80
I1
sI5
I2
sI81
I1
ssS'labels'
p772
g71
(g76
tp773
Rp774
I10
I1
ssS'ending'
p775
g71
(g76
tp776
Rp777
I18
I1
sI12
I1
ssS'cofab'
p778
g71
(g76
tp779
Rp780
I68
I3
ssS'7.0'
p781
g71
(g76
tp782
Rp783
I6
I1
ssS'radio'
p784
g71
(g76
tp785
Rp786
I24
I1
ssS'7.5'
p787
g71
(g76
tp788
Rp789
I36
I1
ssS'7.9'
p790
g71
(g76
tp791
Rp792
I6
I1
sI38
I1
ssS'mid-30'
p793
g71
(g76
tp794
Rp795
I45
I1
ssS'proposed'
p796
g71
(g76
tp797
Rp798
I75
I2
ssS'hrw'
p799
g71
(g76
tp800
Rp801
I97
I2
ssS'hrs'
p802
g71
(g76
tp803
Rp804
I49
I4
sI97
I2
ssS'sugar'
p805
g71
(g76
tp806
Rp807
I46
I5
ssS'oct'
p808
g71
(g76
tp809
Rp810
I5
I1
ssS'4.06'
p811
g71
(g76
tp812
Rp813
I29
I1
ssS'2,332,397'
p814
g71
(g76
tp815
Rp816
I38
I2
ssS'exports'
p817
g71
(g76
tp818
Rp819
I69
I1
sI47
I1
ssS'4.05'
p820
g71
(g76
tp821
Rp822
I97
I1
ssS'4.00'
p823
g71
(g76
tp824
Rp825
I97
I1
ssS'df'
p826
g71
(g76
tp827
Rp828
I18
I1
ssS'preferred'
p829
g71
(g76
tp830
Rp831
I13
I1
ssS'5,086,000'
p832
g71
(g76
tp833
Rp834
I13
I1
ssS'balt/nor/'
p835
g71
(g76
tp836
Rp837
I97
I1
ssS'reversal'
p838
g71
(g76
tp839
Rp840
I47
I1
ssS'report'
p841
g71
(g76
tp842
Rp843
I49
I1
sI12
I1
ssS'14'
p844
g71
(g76
tp845
Rp846
I87
I1
ssS'countries'
p847
g71
(g76
tp848
Rp849
I42
I1
ssS'reintroducing'
p850
g71
(g76
tp851
Rp852
I42
I1
ssS'16'
p853
g71
(g76
tp854
Rp855
I92
I2
sI85
I1
ssS'emh'
p856
g71
(g76
tp857
Rp858
I53
I1
ssS'rate-x'
p859
g71
(g76
tp860
Rp861
I5
I2
ssS'release'
p862
g71
(g76
tp863
Rp864
I5
I2
ssS'25,873,904'
p865
g71
(g76
tp866
Rp867
I69
I2
ssS'66.2'
p868
g71
(g76
tp869
Rp870
I14
I1
sI23
I1
ssS'66.0'
p871
g71
(g76
tp872
Rp873
I23
I1
ssS'liquor'
p874
g71
(g76
tp875
Rp876
I1
I1
ssS'resist'
p877
g71
(g76
tp878
Rp879
I45
I2
ssS'dlrs/bu-sorghum'
p880
g71
(g76
tp881
Rp882
I5
I1
ssS'subject'
p883
g71
(g76
tp884
Rp885
I44
I1
sI46
I1
ssS'brazil'
p886
g71
(g76
tp887
Rp888
I18
I1
sI47
I2
ssS'said'
p889
g71
(g76
tp890
Rp891
I1
I5
sI9
I2
sI10
I7
sI12
I5
sI18
I6
sI19
I2
sI22
I1
sI23
I5
sI29
I3
sI40
I1
sI42
I3
sI44
I2
sI45
I9
sI46
I2
sI47
I1
sI48
I1
sI49
I1
sI50
I1
sI56
I5
sI57
I3
sI58
I1
sI59
I1
sI64
I1
sI68
I2
sI69
I4
sI75
I3
sI80
I1
sI81
I2
sI96
I2
ssS'capacity'
p892
g71
(g76
tp893
Rp894
I69
I1
ssS'137-1/2'
p895
g71
(g76
tp896
Rp897
I59
I1
ssS'unable'
p898
g71
(g76
tp899
Rp900
I45
I1
ssS'co.'
p901
g71
(g76
tp902
Rp903
I18
I1
sI82
I1
ssS'we'
p904
g71
(g76
tp905
Rp906
I18
I1
ssS'terms'
p907
g71
(g76
tp908
Rp909
I44
I1
ssS'omt'
p910
g71
(g76
tp911
Rp912
I12
I1
ssS'convertible'
p913
g71
(g76
tp914
Rp915
I1
I1
ssS'debt'
p916
g71
(g76
tp917
Rp918
I47
I1
ssS'n.a.-not'
p919
g71
(g76
tp920
Rp921
I5
I1
ssS'improve'
p922
g71
(g76
tp923
Rp924
I23
I1
ssS'received'
p925
g71
(g76
tp926
Rp927
I46
I1
ssS'subproducts'
p928
g71
(g76
tp929
Rp930
I6
I2
ssS'against'
p931
g71
(g76
tp932
Rp933
I1
I3
ssS'1,750'
p934
g71
(g76
tp935
Rp936
I1
I1
ssS'2nd'
p937
g71
(g76
tp938
Rp939
I13
I1
ssS'tons'
p940
g71
(g76
tp941
Rp942
I19
I1
sI46
I4
ssS'initiative'
p943
g71
(g76
tp944
Rp945
I19
I1
ssS'250'
p946
g71
(g76
tp947
Rp948
I47
I1
ssS'basis'
p949
g71
(g76
tp950
Rp951
I56
I1
sI42
I2
sI46
I1
ssS'holdings'
p952
g71
(g76
tp953
Rp954
I10
I1
ssS'three'
p955
g71
(g76
tp956
Rp957
I98
I2
sI37
I2
sI41
I1
sI46
I1
sI83
I1
sI89
I2
ssS'been'
p958
g71
(g76
tp959
Rp960
I1
I1
sI42
I1
sI45
I1
sI46
I1
sI47
I2
sI18
I1
sI57
I1
sI29
I1
ssS'.'
p961
g71
(g76
tp962
Rp963
I1
I20
sI5
I8
sI6
I9
sI9
I1
sI10
I9
sI11
I2
sI12
I4
sI13
I2
sI18
I10
sI19
I4
sI22
I1
sI23
I6
sI24
I1
sI27
I1
sI29
I3
sI37
I1
sI40
I3
sI41
I2
sI42
I3
sI44
I3
sI45
I19
sI46
I2
sI47
I9
sI48
I3
sI49
I1
sI50
I1
sI56
I8
sI57
I3
sI58
I2
sI59
I11
sI64
I2
sI66
I1
sI68
I2
sI69
I4
sI74
I2
sI75
I3
sI80
I4
sI81
I5
sI82
I2
sI83
I2
sI87
I1
sI93
I1
sI96
I2
sI97
I6
ssS'commission'
p964
g71
(g76
tp965
Rp966
I96
I1
sI1
I1
sI49
I1
ssS'much'
p967
g71
(g76
tp968
Rp969
I1
I2
ssS'5,988'
p970
g71
(g76
tp971
Rp972
I46
I1
ssS'interest'
p973
g71
(g76
tp974
Rp975
I40
I1
ssS'expected'
p976
g71
(g76
tp977
Rp978
I1
I1
sI40
I1
sI44
I1
sI45
I1
sI23
I1
sI56
I1
ssS'entered'
p979
g71
(g76
tp980
Rp981
I5
I2
ssS'life'
p982
g71
(g76
tp983
Rp984
I27
I1
ssS'mcd'
p985
g71
(g76
tp986
Rp987
I18
I1
ssS'doubts'
p988
g71
(g76
tp989
Rp990
I1
I1
ssS'worked'
p991
g71
(g76
tp992
Rp993
I47
I1
ssS'diverted'
p994
g71
(g76
tp995
Rp996
I47
I1
ssS'applied'
p997
g71
(g76
tp998
Rp999
I64
I2
ssS'3.10'
p1000
g71
(g76
tp1001
Rp1002
I97
I2
ssS'balance'
p1003
g71
(g76
tp1004
Rp1005
I56
I1
ssS'seven'
p1006
g71
(g76
tp1007
Rp1008
I56
I1
sI12
I1
sI13
I1
sI23
I1
ssS'is'
p1009
g71
(g76
tp1010
Rp1011
I1
I2
sI50
I1
sI97
I2
sI12
I2
sI45
I5
sI47
I2
sI18
I1
sI19
I1
sI22
I1
sI87
I1
sI56
I1
sI29
I1
ssS'6,635,318'
p1012
g71
(g76
tp1013
Rp1014
I27
I1
ssS'iv'
p1015
g71
(g76
tp1016
Rp1017
I5
I5
ssS'ii'
p1018
g71
(g76
tp1019
Rp1020
I5
I1
ssS'in'
p1021
g71
(g76
tp1022
Rp1023
I1
I6
sI6
I2
sI9
I1
sI12
I5
sI18
I7
sI19
I2
sI23
I4
sI27
I1
sI29
I3
sI30
I2
sI37
I1
sI40
I6
sI42
I1
sI44
I1
sI45
I7
sI46
I2
sI47
I4
sI48
I4
sI49
I1
sI56
I4
sI57
I1
sI58
I2
sI64
I1
sI69
I5
sI76
I2
sI77
I2
sI78
I2
sI80
I1
sI81
I3
sI82
I1
sI92
I2
sI94
I2
sI95
I2
sI96
I2
sI97
I1
ssS'seattle'
p1024
g71
(g76
tp1025
Rp1026
I97
I2
ssS'if'
p1027
g71
(g76
tp1028
Rp1029
I10
I1
sI45
I2
ssS'337.3'
p1030
g71
(g76
tp1031
Rp1032
I14
I1
ssS'cumulative'
p1033
g71
(g76
tp1034
Rp1035
I1
I1
sI46
I2
ssS'dean'
p1036
g71
(g76
tp1037
Rp1038
I18
I5
ssS'split'
p1039
g71
(g76
tp1040
Rp1041
I9
I2
sI23
I4
ssS'esquire'
p1042
g71
(g76
tp1043
Rp1044
I24
I1
ssS'vegetable'
p1045
g71
(g76
tp1046
Rp1047
I18
I1
sI6
I1
ssS'elliott'
p1048
g71
(g76
tp1049
Rp1050
I45
I1
ssS'showing'
p1051
g71
(g76
tp1052
Rp1053
I6
I1
ssS'nil'
p1054
g71
(g76
tp1055
Rp1056
I13
I1
sI6
I8
ssS'e.b.i'
p1057
g71
(g76
tp1058
Rp1059
I18
I1
ssS'march-may'
p1060
g71
(g76
tp1061
Rp1062
I19
I1
ssS'1,655.8'
p1063
g71
(g76
tp1064
Rp1065
I6
I1
ssS'1978'
p1066
g71
(g76
tp1067
Rp1068
I29
I1
ssS'savings'
p1069
g71
(g76
tp1070
Rp1071
I74
I1
ssS'contact'
p1072
g71
(g76
tp1073
Rp1074
I42
I1
sI45
I1
ssS'the'
p1075
g71
(g76
tp1076
Rp1077
I1
I18
sI5
I2
sI6
I1
sI9
I3
sI10
I15
sI12
I10
sI18
I14
sI19
I11
sI23
I9
sI29
I8
sI40
I2
sI44
I5
sI45
I13
sI46
I11
sI47
I16
sI48
I1
sI49
I3
sI56
I13
sI57
I6
sI58
I2
sI59
I6
sI64
I2
sI68
I2
sI69
I8
sI74
I1
sI75
I5
sI80
I4
sI81
I11
sI83
I2
sI96
I3
sI97
I2
ssS'corporate'
p1078
g71
(g76
tp1079
Rp1080
I23
I1
ssS'mclean'
p1081
g71
(g76
tp1082
Rp1083
I44
I2
ssS'quoted'
p1084
g71
(g76
tp1085
Rp1086
I82
I1
sI59
I1
ssS'april/may'
p1087
g71
(g76
tp1088
Rp1089
I1
I1
ssS'quotes'
p1090
g71
(g76
tp1091
Rp1092
I59
I1
ssS'992.9'
p1093
g71
(g76
tp1094
Rp1095
I65
I1
ssS'previous'
p1096
g71
(g76
tp1097
Rp1098
I69
I1
sI46
I1
ssS'4,400'
p1099
g71
(g76
tp1100
Rp1101
I1
I1
ssS'buyers'
p1102
g71
(g76
tp1103
Rp1104
I1
I1
ssS'had'
p1105
g71
(g76
tp1106
Rp1107
I81
I2
sI45
I2
sI47
I1
sI29
I1
sI23
I1
ssS'board'
p1108
g71
(g76
tp1109
Rp1110
I9
I2
sI45
I1
sI6
I2
sI23
I1
ssS'has'
p1111
g71
(g76
tp1112
Rp1113
I1
I1
sI97
I1
sI42
I1
sI44
I1
sI46
I2
sI47
I3
sI18
I1
sI19
I1
sI23
I1
sI56
I1
sI10
I2
ssS'high-pressure'
p1114
g71
(g76
tp1115
Rp1116
I68
I1
ssS'barge'
p1117
g71
(g76
tp1118
Rp1119
I59
I2
ssS'firmed'
p1120
g71
(g76
tp1121
Rp1122
I59
I1
ssS'cruzados'
p1123
g71
(g76
tp1124
Rp1125
I1
I1
ssS'58'
p1126
g71
(g76
tp1127
Rp1128
I38
I1
ssS'51'
p1129
g71
(g76
tp1130
Rp1131
I41
I1
ssS'50'
p1132
g71
(g76
tp1133
Rp1134
I27
I1
ssS'arrivals'
p1135
g71
(g76
tp1136
Rp1137
I1
I2
ssS'securities'
p1138
g71
(g76
tp1139
Rp1140
I96
I1
ssS'182.4'
p1141
g71
(g76
tp1142
Rp1143
I6
I1
ssS'4.10'
p1144
g71
(g76
tp1145
Rp1146
I66
I1
ssS'right'
p1147
g71
(g76
tp1148
Rp1149
I10
I1
ssS'4.15'
p1150
g71
(g76
tp1151
Rp1152
I29
I1
ssS'memphis/cairo'
p1153
g71
(g76
tp1154
Rp1155
I59
I2
ssS'ico'
p1156
g71
(g76
tp1157
Rp1158
I42
I4
sI75
I3
ssS'for'
p1159
g71
(g76
tp1160
Rp1161
I1
I10
sI5
I3
sI6
I2
sI9
I1
sI10
I4
sI13
I2
sI18
I3
sI19
I2
sI23
I2
sI27
I1
sI40
I1
sI41
I2
sI42
I3
sI44
I1
sI45
I5
sI46
I1
sI47
I2
sI56
I4
sI57
I3
sI59
I2
sI64
I1
sI66
I1
sI68
I3
sI69
I1
sI74
I1
sI75
I1
sI83
I1
sI96
I1
sI97
I2
ssS'bottom'
p1162
g71
(g76
tp1163
Rp1164
I18
I1
ssS'fob'
p1165
g71
(g76
tp1166
Rp1167
I1
I1
ssS'evnsvlle'
p1168
g71
(g76
tp1169
Rp1170
I97
I1
ssS'expires'
p1171
g71
(g76
tp1172
Rp1173
I45
I1
ssS'champion'
p1174
g71
(g76
tp1175
Rp1176
I9
I2
ssS'corn'
p1177
g71
(g76
tp1178
Rp1179
I57
I3
sI5
I1
sI97
I2
ssS'discount'
p1180
g71
(g76
tp1181
Rp1182
I81
I2
sI94
I2
sI78
I2
ssS'restructuring'
p1183
g71
(g76
tp1184
Rp1185
I41
I1
sI23
I2
ssS'corp'
p1186
g71
(g76
tp1187
Rp1188
I96
I2
sI98
I1
sI86
I1
sI71
I1
sI74
I2
sI44
I1
sI45
I1
sI18
I1
sI53
I1
sI22
I1
sI27
I1
ssS'super'
p1189
g71
(g76
tp1190
Rp1191
I49
I1
ssS'479.7'
p1192
g71
(g76
tp1193
Rp1194
I11
I1
ssS'dlrs'
p1195
g71
(g76
tp1196
Rp1197
I1
I14
sI10
I4
sI11
I2
sI12
I2
sI14
I2
sI18
I3
sI19
I1
sI23
I6
sI27
I3
sI30
I2
sI38
I2
sI40
I4
sI41
I2
sI45
I4
sI47
I3
sI48
I2
sI56
I4
sI57
I3
sI58
I8
sI64
I2
sI65
I2
sI66
I2
sI74
I4
sI76
I2
sI77
I2
sI78
I2
sI80
I4
sI81
I2
sI92
I2
sI93
I3
sI94
I2
sI95
I2
sI96
I1
ssS'dollars'
p1198
g71
(g76
tp1199
Rp1200
I97
I1
sI45
I1
ssS'months'
p1201
g71
(g76
tp1202
Rp1203
I41
I1
sI42
I1
sI75
I1
sI46
I1
sI47
I1
sI56
I1
ssS'annualized'
p1204
g71
(g76
tp1205
Rp1206
I56
I1
ssS'ensure'
p1207
g71
(g76
tp1208
Rp1209
I10
I1
ssS'afternoon'
p1210
g71
(g76
tp1211
Rp1212
I45
I1
ssS'slightly'
p1213
g71
(g76
tp1214
Rp1215
I18
I1
ssS'considerations'
p1216
g71
(g76
tp1217
Rp1218
I12
I1
ssS'6,306,0000'
p1219
g71
(g76
tp1220
Rp1221
I41
I1
ssS'froze'
p1222
g71
(g76
tp1223
Rp1224
I47
I1
ssS'formerly'
p1225
g71
(g76
tp1226
Rp1227
I74
I1
ssS'obtaining'
p1228
g71
(g76
tp1229
Rp1230
I1
I1
ssS'atfc'
p1231
g71
(g76
tp1232
Rp1233
I74
I1
ssS'down'
p1234
g71
(g76
tp1235
Rp1236
I46
I1
ssS'shippers'
p1237
g71
(g76
tp1238
Rp1239
I1
I2
ssS'raises'
p1240
g71
(g76
tp1241
Rp1242
I36
I1
sI86
I1
ssS'39.9'
p1243
g71
(g76
tp1244
Rp1245
I6
I1
ssS'old'
p1246
g71
(g76
tp1247
Rp1248
I56
I1
sI1
I1
sI29
I1
ssS'21.6'
p1249
g71
(g76
tp1250
Rp1251
I23
I1
ssS'21.1'
p1252
g71
(g76
tp1253
Rp1254
I6
I1
ssS'initial'
p1255
g71
(g76
tp1256
Rp1257
I83
I1
sI46
I1
ssS'class'
p1258
g71
(g76
tp1259
Rp1260
I87
I2
sI23
I2
ssS'accordingly'
p1261
g71
(g76
tp1262
Rp1263
I46
I1
ssS'conservation'
p1264
g71
(g76
tp1265
Rp1266
I97
I1
ssS'authorized'
p1267
g71
(g76
tp1268
Rp1269
I9
I1
ssS'was'
p1270
g71
(g76
tp1271
Rp1272
I1
I1
sI82
I1
sI69
I1
sI81
I1
sI40
I1
sI45
I4
sI46
I1
sI47
I2
sI49
I1
sI18
I1
sI19
I2
sI29
I1
ssS'owensboro/south'
p1273
g71
(g76
tp1274
Rp1275
I59
I1
ssS'form'
p1276
g71
(g76
tp1277
Rp1278
I19
I1
ssS'offer'
p1279
g71
(g76
tp1280
Rp1281
I1
I1
sI19
I1
sI45
I2
ssS'brly'
p1282
g71
(g76
tp1283
Rp1284
I97
I1
ssS'peninsula'
p1285
g71
(g76
tp1286
Rp1287
I74
I1
ssS'payable'
p1288
g71
(g76
tp1289
Rp1290
I37
I1
sI87
I1
sI82
I1
sI83
I1
sI53
I1
sI23
I1
sI24
I1
ssS'analyst'
p1291
g71
(g76
tp1292
Rp1293
I45
I2
ssS'appraisals'
p1294
g71
(g76
tp1295
Rp1296
I12
I1
ssS'bids'
p1297
g71
(g76
tp1298
Rp1299
I45
I1
ssS'pesos'
p1300
g71
(g76
tp1301
Rp1302
I82
I8
ssS'4,161.0'
p1303
g71
(g76
tp1304
Rp1305
I6
I1
ssS'linoil'
p1306
g71
(g76
tp1307
Rp1308
I6
I1
ssS'150'
p1309
g71
(g76
tp1310
Rp1311
I47
I1
ssS'phil'
p1312
g71
(g76
tp1313
Rp1314
I97
I1
ssS'covers'
p1315
g71
(g76
tp1316
Rp1317
I5
I1
ssS"''"
p1318
g71
(g76
tp1319
Rp1320
I40
I1
sI45
I4
sI47
I1
sI18
I4
sI23
I1
sI56
I1
sI29
I1
ssS'65.89'
p1321
g71
(g76
tp1322
Rp1323
I80
I1
ssS'negotiations'
p1324
g71
(g76
tp1325
Rp1326
I44
I1
ssS'no'
p1327
g71
(g76
tp1328
Rp1329
I81
I1
sI59
I5
ssS'stake'
p1330
g71
(g76
tp1331
Rp1332
I96
I2
ssS'when'
p1333
g71
(g76
tp1334
Rp1335
I45
I1
sI46
I1
ssS'interested'
p1336
g71
(g76
tp1337
Rp1338
I45
I1
ssS"'s"
p1339
g71
(g76
tp1340
Rp1341
I12
I1
sI10
I1
sI44
I3
sI45
I7
sI47
I2
sI48
I1
sI18
I3
sI83
I1
sI23
I1
sI59
I1
sI29
I2
ssS'rollins'
p1342
g71
(g76
tp1343
Rp1344
I45
I1
ssS'112-1/2'
p1345
g71
(g76
tp1346
Rp1347
I59
I1
ssS'fell'
p1348
g71
(g76
tp1349
Rp1350
I48
I1
sI80
I1
ssS'cobanco'
p1351
g71
(g76
tp1352
Rp1353
I11
I1
ssS'1,001,430'
p1354
g71
(g76
tp1355
Rp1356
I46
I1
ssS'billion'
p1357
g71
(g76
tp1358
Rp1359
I65
I1
sI66
I2
sI40
I2
sI80
I3
sI82
I3
sI14
I1
sI47
I3
sI48
I3
sI18
I2
sI58
I4
sI92
I2
sI93
I2
ssS'reorganization'
p1360
g71
(g76
tp1361
Rp1362
I10
I1
ssS'daily'
p1363
g71
(g76
tp1364
Rp1365
I49
I1
ssS'107.77'
p1366
g71
(g76
tp1367
Rp1368
I58
I1
ssS'time'
p1369
g71
(g76
tp1370
Rp1371
I49
I1
sI10
I1
ssS'profits'
p1372
g71
(g76
tp1373
Rp1374
I56
I1
sI12
I1
sI45
I1
sI23
I2
ssS'rol'
p1375
g71
(g76
tp1376
Rp1377
I45
I1
ssS'11-5/8'
p1378
g71
(g76
tp1379
Rp1380
I45
I1
ssS'90'
p1381
g71
(g76
tp1382
Rp1383
I74
I1
ssS'37.4'
p1384
g71
(g76
tp1385
Rp1386
I6
I1
ssS'milk'
p1387
g71
(g76
tp1388
Rp1389
I18
I1
ssS'zone'
p1390
g71
(g76
tp1391
Rp1392
I1
I1
ssS'tka'
p1393
g71
(g76
tp1394
Rp1395
I86
I1
ssS'charge'
p1396
g71
(g76
tp1397
Rp1398
I41
I2
sI23
I1
ssS'290.9'
p1399
g71
(g76
tp1400
Rp1401
I65
I1
ssS'must'
p1402
g71
(g76
tp1403
Rp1404
I57
I1
ssS'farmer-owned'
p1405
g71
(g76
tp1406
Rp1407
I5
I2
ssS'rosemarie'
p1408
g71
(g76
tp1409
Rp1410
I45
I1
ssS'division'
p1411
g71
(g76
tp1412
Rp1413
I56
I1
ssS'35,145,000'
p1414
g71
(g76
tp1415
Rp1416
I93
I1
ssS'92.2'
p1417
g71
(g76
tp1418
Rp1419
I27
I1
ssS'298.5'
p1420
g71
(g76
tp1421
Rp1422
I13
I1
ssS'25,459,238'
p1423
g71
(g76
tp1424
Rp1425
I69
I1
ssS'immediately'
p1426
g71
(g76
tp1427
Rp1428
I22
I1
ssS'4,415'
p1429
g71
(g76
tp1430
Rp1431
I1
I1
ssS'4,647,000'
p1432
g71
(g76
tp1433
Rp1434
I37
I1
ssS'1.49'
p1435
g71
(g76
tp1436
Rp1437
I97
I2
ssS'div'
p1438
g71
(g76
tp1439
Rp1440
I36
I1
sI37
I1
sI71
I1
sI82
I1
sI83
I2
sI53
I1
sI86
I1
sI87
I2
sI24
I1
sI89
I1
sI85
I2
ssS'bahia'
p1441
g71
(g76
tp1442
Rp1443
I1
I4
ssS'says'
p1444
g71
(g76
tp1445
Rp1446
I76
I2
sI77
I2
sI92
I2
sI29
I1
sI94
I2
sI95
I2
ssS'two-week'
p1447
g71
(g76
tp1448
Rp1449
I81
I1
ssS'2.62'
p1450
g71
(g76
tp1451
Rp1452
I97
I1
ssS'55.8'
p1453
g71
(g76
tp1454
Rp1455
I6
I1
ssS'slowed'
p1456
g71
(g76
tp1457
Rp1458
I45
I1
ssS'strohmaier'
p1459
g71
(g76
tp1460
Rp1461
I45
I1
ssS'shares'
p1462
g71
(g76
tp1463
Rp1464
I96
I4
sI9
I2
sI10
I3
sI45
I3
sI23
I1
ssS'current'
p1465
g71
(g76
tp1466
Rp1467
I10
I1
sI12
I1
ssS'international'
p1468
g71
(g76
tp1469
Rp1470
I56
I3
sI42
I1
sI75
I1
sI13
I1
sI87
I2
ssS'falling'
p1471
g71
(g76
tp1472
Rp1473
I18
I1
ssS'l.p.'
p1474
g71
(g76
tp1475
Rp1476
I45
I1
ssS'totalling'
p1477
g71
(g76
tp1478
Rp1479
I42
I1
ssS'linseed'
p1480
g71
(g76
tp1481
Rp1482
I6
I1
ssS'alone'
p1483
g71
(g76
tp1484
Rp1485
I18
I1
ssS'norf./phil'
p1486
g71
(g76
tp1487
Rp1488
I97
I1
ssS'change'
p1489
g71
(g76
tp1490
Rp1491
I10
I1
sI75
I1
ssS'dec'
p1492
g71
(g76
tp1493
Rp1494
I1
I3
ssS'redemption'
p1495
g71
(g76
tp1496
Rp1497
I97
I1
ssS'institute'
p1498
g71
(g76
tp1499
Rp1500
I58
I1
ssS'2,986,000'
p1501
g71
(g76
tp1502
Rp1503
I13
I1
ssS'lowers'
p1504
g71
(g76
tp1505
Rp1506
I22
I1
ssS'stockton'
p1507
g71
(g76
tp1508
Rp1509
I97
I2
ssS'soybeans'
p1510
g71
(g76
tp1511
Rp1512
I69
I1
ssS'marked'
p1513
g71
(g76
tp1514
Rp1515
I81
I1
ssS'licensing'
p1516
g71
(g76
tp1517
Rp1518
I18
I1
ssS'1st'
p1519
g71
(g76
tp1520
Rp1521
I12
I1
ssS'197,000'
p1522
g71
(g76
tp1523
Rp1524
I98
I1
ssS'crisis'
p1525
g71
(g76
tp1526
Rp1527
I47
I1
ssS'market'
p1528
g71
(g76
tp1529
Rp1530
I97
I1
sI10
I1
sI58
I1
sI30
I2
ssS'terminal'
p1531
g71
(g76
tp1532
Rp1533
I64
I1
sI97
I1
sI10
I6
ssS'third-quarter'
p1534
g71
(g76
tp1535
Rp1536
I18
I1
ssS'by'
p1537
g71
(g76
tp1538
Rp1539
I64
I1
sI1
I1
sI96
I1
sI44
I1
sI45
I4
sI47
I1
sI81
I1
sI22
I1
sI57
I1
ssS'prev'
p1540
g71
(g76
tp1541
Rp1542
I6
I8
ssS'today'
p1543
g71
(g76
tp1544
Rp1545
I49
I1
sI59
I1
sI45
I2
sI23
I1
ssS'``'
p1546
g71
(g76
tp1547
Rp1548
I40
I1
sI45
I4
sI47
I1
sI18
I4
sI23
I1
sI56
I2
sI29
I1
ssS'lawns'
p1549
g71
(g76
tp1550
Rp1551
I45
I1
ssS'realty'
p1552
g71
(g76
tp1553
Rp1554
I29
I1
ssS'bushels'
p1555
g71
(g76
tp1556
Rp1557
I69
I5
ssS'eight-member'
p1558
g71
(g76
tp1559
Rp1560
I75
I1
ssS'redistributions'
p1561
g71
(g76
tp1562
Rp1563
I42
I1
ssS'edible'
p1564
g71
(g76
tp1565
Rp1566
I57
I2
ssS'236.90'
p1567
g71
(g76
tp1568
Rp1569
I58
I1
ssS'growing'
p1570
g71
(g76
tp1571
Rp1572
I40
I1
ssS'making'
p1573
g71
(g76
tp1574
Rp1575
I1
I1
sI50
I1
ssS'995'
p1576
g71
(g76
tp1577
Rp1578
I1
I1
ssS'kenneth'
p1579
g71
(g76
tp1580
Rp1581
I18
I1
ssS'uruguay'
p1582
g71
(g76
tp1583
Rp1584
I1
I2
ssS'december'
p1585
g71
(g76
tp1586
Rp1587
I48
I1
sI18
I1
sI83
I1
sI29
I2
sI46
I1
ssS'1,545,160'
p1588
g71
(g76
tp1589
Rp1590
I27
I1
ssS'dropped'
p1591
g71
(g76
tp1592
Rp1593
I80
I1
sI29
I1
ssS'occur'
p1594
g71
(g76
tp1595
Rp1596
I10
I1
ssS'lubbock'
p1597
g71
(g76
tp1598
Rp1599
I97
I1
ssS'1'
p1600
g71
(g76
tp1601
Rp1602
I9
I1
sI42
I2
ssS'totaled'
p1603
g71
(g76
tp1604
Rp1605
I46
I1
ssS'fourth'
p1606
g71
(g76
tp1607
Rp1608
I56
I1
sI18
I3
sI45
I2
ssS'guarantee'
p1609
g71
(g76
tp1610
Rp1611
I57
I1
ssS'economy'
p1612
g71
(g76
tp1613
Rp1614
I40
I1
sI47
I3
ssS'3.47'
p1615
g71
(g76
tp1616
Rp1617
I29
I1
ssS'product'
p1618
g71
(g76
tp1619
Rp1620
I56
I1
sI10
I1
ssS'mar'
p1621
g71
(g76
tp1622
Rp1623
I6
I7
ssS'eights'
p1624
g71
(g76
tp1625
Rp1626
I36
I1
sI71
I1
ssS'may'
p1627
g71
(g76
tp1628
Rp1629
I1
I2
sI18
I1
sI59
I1
sI12
I2
sI6
I4
ssS'7-1/2'
p1630
g71
(g76
tp1631
Rp1632
I59
I1
ssS'spot'
p1633
g71
(g76
tp1634
Rp1635
I1
I1
ssS'4th'
p1636
g71
(g76
tp1637
Rp1638
I65
I1
sI98
I1
sI37
I1
sI38
I1
sI41
I2
sI74
I3
sI11
I1
sI14
I1
sI18
I1
sI24
I1
sI27
I1
ssS'0.75'
p1639
g71
(g76
tp1640
Rp1641
I22
I2
ssS'improving'
p1642
g71
(g76
tp1643
Rp1644
I1
I1
ssS'acceptances'
p1645
g71
(g76
tp1646
Rp1647
I80
I2
ssS'data'
p1648
g71
(g76
tp1649
Rp1650
I80
I1
sI81
I1
sI46
I1
ssS'155,221'
p1651
g71
(g76
tp1652
Rp1653
I1
I1
ssS'commodity'
p1654
g71
(g76
tp1655
Rp1656
I57
I1
sI19
I1
sI97
I2
ssS'16,000'
p1657
g71
(g76
tp1658
Rp1659
I24
I1
ssS'sept'
p1660
g71
(g76
tp1661
Rp1662
I1
I2
ssS'borrowing'
p1663
g71
(g76
tp1664
Rp1665
I81
I1
ssS'st'
p1666
g71
(g76
tp1667
Rp1668
I97
I1
sI59
I2
ssS'510.2'
p1669
g71
(g76
tp1670
Rp1671
I11
I1
ssS'exclusive'
p1672
g71
(g76
tp1673
Rp1674
I10
I1
ssS'ttx'
p1675
g71
(g76
tp1676
Rp1677
I71
I1
ssS'pointed'
p1678
g71
(g76
tp1679
Rp1680
I45
I1
ssS'years'
p1681
g71
(g76
tp1682
Rp1683
I10
I1
sI18
I1
ssS'ended'
p1684
g71
(g76
tp1685
Rp1686
I1
I1
sI69
I1
sI46
I1
sI47
I1
sI80
I1
sI81
I1
sI58
I1
ssS'introductions'
p1687
g71
(g76
tp1688
Rp1689
I56
I1
ssS'68,004,000'
p1690
g71
(g76
tp1691
Rp1692
I65
I1
ssS'statistical'
p1693
g71
(g76
tp1694
Rp1695
I48
I1
ssS'still'
p1696
g71
(g76
tp1697
Rp1698
I1
I3
sI75
I1
ssS'derive'
p1699
g71
(g76
tp1700
Rp1701
I18
I1
ssS'group'
p1702
g71
(g76
tp1703
Rp1704
I96
I2
sI65
I1
sI68
I1
sI42
I1
sI75
I1
sI29
I2
ssS'forms'
p1705
g71
(g76
tp1706
Rp1707
I10
I1
ssS'window'
p1708
g71
(g76
tp1709
Rp1710
I81
I1
sI78
I2
ssS'larsen'
p1711
g71
(g76
tp1712
Rp1713
I18
I1
ssS'5.54'
p1714
g71
(g76
tp1715
Rp1716
I5
I1
ssS'halt'
p1717
g71
(g76
tp1718
Rp1719
I47
I1
ssS'7,075,000'
p1720
g71
(g76
tp1721
Rp1722
I24
I1
ssS'undisclosed'
p1723
g71
(g76
tp1724
Rp1725
I68
I1
ssS'55,000'
p1726
g71
(g76
tp1727
Rp1728
I24
I1
ssS'half'
p1729
g71
(g76
tp1730
Rp1731
I81
I2
ssS'not'
p1732
g71
(g76
tp1733
Rp1734
I1
I1
sI10
I1
sI11
I1
sI29
I1
sI45
I2
ssS'now'
p1735
g71
(g76
tp1736
Rp1737
I1
I1
sI47
I1
ssS'26.2'
p1738
g71
(g76
tp1739
Rp1740
I74
I1
ssS'14.5'
p1741
g71
(g76
tp1742
Rp1743
I29
I1
sI6
I1
ssS'name'
p1744
g71
(g76
tp1745
Rp1746
I82
I1
sI87
I1
ssS'january'
p1747
g71
(g76
tp1748
Rp1749
I1
I1
sI5
I1
sI74
I1
sI46
I1
sI48
I2
sI56
I1
sI29
I3
ssS'drop'
p1750
g71
(g76
tp1751
Rp1752
I29
I2
ssS'24.2'
p1753
g71
(g76
tp1754
Rp1755
I74
I1
ssS'cinram'
p1756
g71
(g76
tp1757
Rp1758
I38
I1
ssS'21,782,929'
p1759
g71
(g76
tp1760
Rp1761
I69
I2
ssS'quarter'
p1762
g71
(g76
tp1763
Rp1764
I64
I1
sI12
I5
sI45
I2
sI18
I3
sI23
I2
sI56
I2
ssS'baltimore/'
p1765
g71
(g76
tp1766
Rp1767
I97
I1
ssS'honduras'
p1768
g71
(g76
tp1769
Rp1770
I57
I2
ssS'ee'
p1771
g71
(g76
tp1772
Rp1773
I24
I1
ssS'crushing'
p1774
g71
(g76
tp1775
Rp1776
I69
I1
ssS'carryovers'
p1777
g71
(g76
tp1778
Rp1779
I64
I1
ssS'ex'
p1780
g71
(g76
tp1781
Rp1782
I59
I3
ssS'year'
p1783
g71
(g76
tp1784
Rp1785
I1
I2
sI98
I1
sI82
I1
sI37
I1
sI38
I1
sI65
I1
sI40
I2
sI74
I1
sI11
I2
sI12
I2
sI45
I1
sI46
I3
sI47
I1
sI48
I1
sI18
I4
sI23
I1
sI56
I3
sI27
I2
sI93
I1
sI69
I1
ssS'superior+'
p1786
g71
(g76
tp1787
Rp1788
I1
I1
ssS'canada'
p1789
g71
(g76
tp1790
Rp1791
I18
I1
ssS'profit'
p1792
g71
(g76
tp1793
Rp1794
I24
I6
sI41
I2
sI98
I4
sI13
I7
sI37
I4
ssS'110,000'
p1795
g71
(g76
tp1796
Rp1797
I96
I1
ssS'increase'
p1798
g71
(g76
tp1799
Rp1800
I40
I1
sI9
I1
sI10
I1
sI23
I3
ssS'lubricating'
p1801
g71
(g76
tp1802
Rp1803
I68
I1
ssS'earlier'
p1804
g71
(g76
tp1805
Rp1806
I56
I1
sI1
I1
sI18
I1
sI42
I1
sI23
I1
ssS'limps'
p1807
g71
(g76
tp1808
Rp1809
I47
I1
ssS'care'
p1810
g71
(g76
tp1811
Rp1812
I45
I1
ssS'language'
p1813
g71
(g76
tp1814
Rp1815
I37
I1
ssS'132,000'
p1816
g71
(g76
tp1817
Rp1818
I11
I1
ssS'technolgy'
p1819
g71
(g76
tp1820
Rp1821
I10
I1
ssS'think'
p1822
g71
(g76
tp1823
Rp1824
I45
I1
ssS'first'
p1825
g71
(g76
tp1826
Rp1827
I64
I1
sI50
I2
sI27
I1
sI12
I4
sI47
I2
ssS'oper'
p1828
g71
(g76
tp1829
Rp1830
I13
I4
ssS'pillsbury'
p1831
g71
(g76
tp1832
Rp1833
I19
I1
ssS'one'
p1834
g71
(g76
tp1835
Rp1836
I98
I1
sI37
I1
sI71
I1
sI10
I1
sI75
I1
sI14
I1
sI47
I1
sI23
I1
sI87
I1
ssS'soaring'
p1837
g71
(g76
tp1838
Rp1839
I47
I1
ssS'carry'
p1840
g71
(g76
tp1841
Rp1842
I11
I1
ssS'open'
p1843
g71
(g76
tp1844
Rp1845
I1
I2
ssS'tomorrow'
p1846
g71
(g76
tp1847
Rp1848
I49
I1
sI42
I1
sI75
I1
ssS'city'
p1849
g71
(g76
tp1850
Rp1851
I81
I1
sI97
I1
ssS'cooling'
p1852
g71
(g76
tp1853
Rp1854
I68
I1
ssS'white'
p1855
g71
(g76
tp1856
Rp1857
I57
I3
sI45
I1
ssS'acquisitions'
p1858
g71
(g76
tp1859
Rp1860
I18
I1
sI12
I3
ssS'mining'
p1861
g71
(g76
tp1862
Rp1863
I22
I1
ssS'that'
p1864
g71
(g76
tp1865
Rp1866
I64
I1
sI1
I1
sI81
I2
sI12
I1
sI45
I4
sI46
I1
sI49
I1
sI18
I1
sI29
I1
ssS'season'
p1867
g71
(g76
tp1868
Rp1869
I1
I1
ssS'released'
p1870
g71
(g76
tp1871
Rp1872
I80
I1
sI81
I1
ssS'than'
p1873
g71
(g76
tp1874
Rp1875
I81
I1
sI27
I1
sI12
I1
sI45
I1
sI47
I1
ssS'11'
p1876
g71
(g76
tp1877
Rp1878
I24
I1
sI13
I1
sI6
I1
ssS'10'
p1879
g71
(g76
tp1880
Rp1881
I24
I1
sI80
I1
sI45
I1
ssS'13'
p1882
g71
(g76
tp1883
Rp1884
I49
I1
sI36
I1
sI89
I1
sI71
I1
ssS'12'
p1885
g71
(g76
tp1886
Rp1887
I66
I2
sI6
I1
sI41
I1
sI42
I1
sI75
I1
sI13
I1
sI47
I1
sI86
I1
sI87
I1
sI24
I1
ssS'15'
p1888
g71
(g76
tp1889
Rp1890
I1
I1
sI40
I2
sI12
I1
sI49
I1
sI82
I1
sI24
I1
ssS'effective'
p1891
g71
(g76
tp1892
Rp1893
I97
I1
sI22
I1
sI23
I1
ssS'17'
p1894
g71
(g76
tp1895
Rp1896
I96
I1
sI37
I1
ssS'oats'
p1897
g71
(g76
tp1898
Rp1899
I97
I1
sI5
I1
ssS'19'
p1900
g71
(g76
tp1901
Rp1902
I96
I1
sI41
I1
sI5
I1
ssS'18'
p1903
g71
(g76
tp1904
Rp1905
I80
I1
sI76
I2
sI37
I1
sI77
I2
ssS'spokeswoman'
p1906
g71
(g76
tp1907
Rp1908
I45
I1
ssS'brown-forman'
p1909
g71
(g76
tp1910
Rp1911
I14
I1
sI23
I6
ssS'future'
p1912
g71
(g76
tp1913
Rp1914
I10
I1
sI42
I1
sI6
I1
ssS'were'
p1915
g71
(g76
tp1916
Rp1917
I1
I9
sI69
I1
sI6
I2
sI10
I1
sI45
I1
sI47
I1
ssS'14,635,000'
p1918
g71
(g76
tp1919
Rp1920
I66
I1
ssS'and'
p1921
g71
(g76
tp1922
Rp1923
I1
I23
sI5
I2
sI6
I2
sI10
I6
sI13
I3
sI18
I3
sI19
I2
sI23
I5
sI24
I1
sI27
I1
sI36
I1
sI40
I1
sI41
I1
sI44
I2
sI45
I10
sI46
I2
sI47
I6
sI48
I1
sI50
I1
sI56
I3
sI57
I2
sI58
I1
sI64
I2
sI68
I5
sI69
I3
sI74
I3
sI75
I1
sI80
I1
sI81
I1
sI96
I2
sI97
I1
ssS'ann'
p1924
g71
(g76
tp1925
Rp1926
I18
I1
ssS'say'
p1927
g71
(g76
tp1928
Rp1929
I45
I1
ssS'sells'
p1930
g71
(g76
tp1931
Rp1932
I64
I1
ssS'any'
p1933
g71
(g76
tp1934
Rp1935
I64
I1
sI10
I1
sI12
I1
sI42
I1
sI45
I3
ssS'offering'
p1936
g71
(g76
tp1937
Rp1938
I93
I1
ssS'note'
p1939
g71
(g76
tp1940
Rp1941
I66
I1
sI37
I1
sI41
I1
sI74
I1
sI11
I1
sI13
I1
sI82
I1
sI87
I1
sI24
I1
sI27
I1
sI93
I1
ssS'performance'
p1942
g71
(g76
tp1943
Rp1944
I18
I1
ssS'registered'
p1945
g71
(g76
tp1946
Rp1947
I1
I1
sI57
I1
ssS'1,715,000'
p1948
g71
(g76
tp1949
Rp1950
I98
I1
ssS'normal'
p1951
g71
(g76
tp1952
Rp1953
I1
I1
ssS'track'
p1954
g71
(g76
tp1955
Rp1956
I97
I2
ssS'price'
p1957
g71
(g76
tp1958
Rp1959
I97
I1
sI10
I3
sI45
I1
sI22
I1
sI5
I5
ssS'paid'
p1960
g71
(g76
tp1961
Rp1962
I19
I1
sI23
I1
ssS'falls'
p1963
g71
(g76
tp1964
Rp1965
I76
I2
ssS'fgrp'
p1966
g71
(g76
tp1967
Rp1968
I65
I1
ssS'consignment'
p1969
g71
(g76
tp1970
Rp1971
I1
I2
ssS'america'
p1972
g71
(g76
tp1973
Rp1974
I50
I2
sI74
I1
ssS'20.'
p1975
g71
(g76
tp1976
Rp1977
I23
I1
ssS'lawn'
p1978
g71
(g76
tp1979
Rp1980
I45
I1
ssS'surprising'
p1981
g71
(g76
tp1982
Rp1983
I29
I1
ssS'average'
p1984
g71
(g76
tp1985
Rp1986
I49
I1
sI5
I2
sI94
I2
sI81
I1
ssS'reform'
p1987
g71
(g76
tp1988
Rp1989
I18
I1
ssS'steady'
p1990
g71
(g76
tp1991
Rp1992
I59
I1
ssS'sale'
p1993
g71
(g76
tp1994
Rp1995
I10
I2
sI19
I1
sI66
I1
ssS'13,555,000'
p1996
g71
(g76
tp1997
Rp1998
I66
I1
ssS'typically'
p1999
g71
(g76
tp2000
Rp2001
I12
I1
ssS'filing'
p2002
g71
(g76
tp2003
Rp2004
I96
I1
ssS'laws'
p2005
g71
(g76
tp2006
Rp2007
I29
I1
ssS'3.70'
p2008
g71
(g76
tp2009
Rp2010
I97
I3
ssS'shot'
p2011
g71
(g76
tp2012
Rp2013
I45
I1
ssS'surplus'
p2014
g71
(g76
tp2015
Rp2016
I47
I1
ssS'show'
p2017
g71
(g76
tp2018
Rp2019
I6
I1
ssS'30-40'
p2020
g71
(g76
tp2021
Rp2022
I56
I1
ssS'line'
p2023
g71
(g76
tp2024
Rp2025
I57
I2
sI18
I1
ssS'gulf'
p2026
g71
(g76
tp2027
Rp2028
I64
I2
sI97
I4
sI59
I3
ssS'enough'
p2029
g71
(g76
tp2030
Rp2031
I18
I1
ssS'only'
p2032
g71
(g76
tp2033
Rp2034
I1
I1
sI69
I1
sI97
I1
ssS'going'
p2035
g71
(g76
tp2036
Rp2037
I1
I1
ssS'oct/dec'
p2038
g71
(g76
tp2039
Rp2040
I1
I3
ssS'exchangeable'
p2041
g71
(g76
tp2042
Rp2043
I50
I1
ssS'get'
p2044
g71
(g76
tp2045
Rp2046
I29
I1
ssS'1,142,000'
p2047
g71
(g76
tp2048
Rp2049
I74
I1
ssS'hailed'
p2050
g71
(g76
tp2051
Rp2052
I47
I1
ssS'166.1'
p2053
g71
(g76
tp2054
Rp2055
I6
I1
ssS'secondary'
p2056
g71
(g76
tp2057
Rp2058
I93
I1
ssS'2,858,000'
p2059
g71
(g76
tp2060
Rp2061
I11
I1
ssS'4.38'
p2062
g71
(g76
tp2063
Rp2064
I97
I1
ssS'discussing'
p2065
g71
(g76
tp2066
Rp2067
I45
I1
ssS'6.2'
p2068
g71
(g76
tp2069
Rp2070
I1
I1
ssS'declared'
p2071
g71
(g76
tp2072
Rp2073
I23
I1
ssS'1.94'
p2074
g71
(g76
tp2075
Rp2076
I93
I1
ssS'mortgage'
p2077
g71
(g76
tp2078
Rp2079
I50
I2
ssS'farmers'
p2080
g71
(g76
tp2081
Rp2082
I1
I2
sI65
I1
ssS'federal'
p2083
g71
(g76
tp2084
Rp2085
I64
I1
sI80
I1
sI74
I1
sI81
I1
ssS'review'
p2086
g71
(g76
tp2087
Rp2088
I1
I2
ssS'morbelli'
p2089
g71
(g76
tp2090
Rp2091
I45
I3
ssS'charters'
p2092
g71
(g76
tp2093
Rp2094
I44
I1
ssS'between'
p2095
g71
(g76
tp2096
Rp2097
I45
I1
ssS'import'
p2098
g71
(g76
tp2099
Rp2100
I46
I3
ssS'6.8'
p2101
g71
(g76
tp2102
Rp2103
I6
I1
ssS'port/'
p2104
g71
(g76
tp2105
Rp2106
I97
I1
ssS'arroba'
p2107
g71
(g76
tp2108
Rp2109
I1
I1
ssS'come'
p2110
g71
(g76
tp2111
Rp2112
I1
I1
ssS'1987'
p2113
g71
(g76
tp2114
Rp2115
I24
I2
sI40
I2
sI57
I1
sI46
I2
sI56
I1
ssS'concentrated'
p2116
g71
(g76
tp2117
Rp2118
I45
I1
ssS'785'
p2119
g71
(g76
tp2120
Rp2121
I1
I2
ssS'contract'
p2122
g71
(g76
tp2123
Rp2124
I44
I2
ssS'2/27'
p2125
g71
(g76
tp2126
Rp2127
I49
I1
ssS'2/26'
p2128
g71
(g76
tp2129
Rp2130
I49
I1
ssS'holders'
p2131
g71
(g76
tp2132
Rp2133
I82
I1
sI23
I1
ssS'1984'
p2134
g71
(g76
tp2135
Rp2136
I47
I1
ssS'traded'
p2137
g71
(g76
tp2138
Rp2139
I59
I2
ssS'nearby'
p2140
g71
(g76
tp2141
Rp2142
I1
I1
ssS'among'
p2143
g71
(g76
tp2144
Rp2145
I75
I1
ssS'tonne'
p2146
g71
(g76
tp2147
Rp2148
I1
I2
ssS'bfdb'
p2149
g71
(g76
tp2150
Rp2151
I23
I1
ssS'period'
p2152
g71
(g76
tp2153
Rp2154
I1
I2
sI48
I1
sI81
I1
sI18
I1
sI83
I1
sI56
I1
ssS'50,000'
p2155
g71
(g76
tp2156
Rp2157
I10
I1
ssS'60'
p2158
g71
(g76
tp2159
Rp2160
I1
I1
ssS'pom'
p2161
g71
(g76
tp2162
Rp2163
I66
I1
ssS'64'
p2164
g71
(g76
tp2165
Rp2166
I41
I1
sI78
I2
sI81
I2
ssS'66'
p2167
g71
(g76
tp2168
Rp2169
I22
I2
sI14
I1
ssS'seasonally'
p2170
g71
(g76
tp2171
Rp2172
I29
I1
ssS'considering'
p2173
g71
(g76
tp2174
Rp2175
I29
I1
ssS'howard'
p2176
g71
(g76
tp2177
Rp2178
I18
I1
ssS'west'
p2179
g71
(g76
tp2180
Rp2181
I18
I1
ssS'carryforwards'
p2182
g71
(g76
tp2183
Rp2184
I13
I1
ssS'630'
p2185
g71
(g76
tp2186
Rp2187
I56
I1
ssS'shortages'
p2188
g71
(g76
tp2189
Rp2190
I47
I2
ssS'thousand'
p2191
g71
(g76
tp2192
Rp2193
I1
I1
ssS'+bahia'
p2194
g71
(g76
tp2195
Rp2196
I1
I1
ssS'2,400'
p2197
g71
(g76
tp2198
Rp2199
I1
I1
ssS'dramatic'
p2200
g71
(g76
tp2201
Rp2202
I47
I1
ssS'declaration'
p2203
g71
(g76
tp2204
Rp2205
I82
I1
ssS'62.94'
p2206
g71
(g76
tp2207
Rp2208
I58
I1
ssS'those'
p2209
g71
(g76
tp2210
Rp2211
I18
I1
sI59
I1
sI6
I1
ssS'these'
p2212
g71
(g76
tp2213
Rp2214
I97
I1
sI12
I1
ssS'cash'
p2215
g71
(g76
tp2216
Rp2217
I45
I2
sI23
I4
ssS"n't"
p2218
g71
(g76
tp2219
Rp2220
I45
I1
ssS'crowley'
p2221
g71
(g76
tp2222
Rp2223
I44
I1
ssS'situation'
p2224
g71
(g76
tp2225
Rp2226
I47
I1
ssS'sorghum'
p2227
g71
(g76
tp2228
Rp2229
I97
I1
sI5
I1
sI6
I1
ssS'exercisable'
p2230
g71
(g76
tp2231
Rp2232
I10
I2
ssS'elgin'
p2233
g71
(g76
tp2234
Rp2235
I18
I1
ssS'sunflowerseed'
p2236
g71
(g76
tp2237
Rp2238
I6
I2
ssS'telephone'
p2239
g71
(g76
tp2240
Rp2241
I82
I1
ssS'middle'
p2242
g71
(g76
tp2243
Rp2244
I12
I1
ssS'evening'
p2245
g71
(g76
tp2246
Rp2247
I42
I1
ssS'limping'
p2248
g71
(g76
tp2249
Rp2250
I47
I1
ssS'technology'
p2251
g71
(g76
tp2252
Rp2253
I10
I2
ssS'13.0'
p2254
g71
(g76
tp2255
Rp2256
I6
I1
ssS'bags'
p2257
g71
(g76
tp2258
Rp2259
I1
I5
sI42
I1
ssS'expenditures'
p2260
g71
(g76
tp2261
Rp2262
I56
I2
ssS'11.4'
p2263
g71
(g76
tp2264
Rp2265
I98
I1
ssS'pay'
p2266
g71
(g76
tp2267
Rp2268
I36
I1
sI71
I1
sI10
I1
sI85
I1
sI86
I1
sI89
I1
ssS'same'
p2269
g71
(g76
tp2270
Rp2271
I1
I1
sI18
I1
sI59
I3
ssS'buys'
p2272
g71
(g76
tp2273
Rp2274
I68
I1
ssS'figures'
p2275
g71
(g76
tp2276
Rp2277
I1
I2
sI82
I1
sI69
I1
sI6
I1
ssS'pan'
p2278
g71
(g76
tp2279
Rp2280
I74
I1
ssS'week'
p2281
g71
(g76
tp2282
Rp2283
I1
I2
sI69
I7
sI76
I2
sI44
I1
sI77
I2
sI46
I4
sI80
I1
sI81
I4
sI78
I2
sI58
I2
sI59
I4
sI92
I2
sI94
I2
sI30
I2
ssS'extended'
p2284
g71
(g76
tp2285
Rp2286
I46
I1
ssS'barges'
p2287
g71
(g76
tp2288
Rp2289
I59
I2
ssS'producers'
p2290
g71
(g76
tp2291
Rp2292
I42
I1
sI75
I1
ssS'running'
p2293
g71
(g76
tp2294
Rp2295
I56
I1
ssS'harris'
p2296
g71
(g76
tp2297
Rp2298
I56
I2
ssS'3,761,000'
p2299
g71
(g76
tp2300
Rp2301
I98
I1
ssS'186,790,000'
p2302
g71
(g76
tp2303
Rp2304
I66
I1
ssS'changing'
p2305
g71
(g76
tp2306
Rp2307
I45
I1
ssS'anticipated'
p2308
g71
(g76
tp2309
Rp2310
I18
I1
ssS'totally'
p2311
g71
(g76
tp2312
Rp2313
I45
I1
ssS'amounts'
p2314
g71
(g76
tp2315
Rp2316
I74
I1
ssS'costs'
p2317
g71
(g76
tp2318
Rp2319
I10
I1
ssS'woodco'
p2320
g71
(g76
tp2321
Rp2322
I10
I2
ssS'ccc'
p2323
g71
(g76
tp2324
Rp2325
I57
I2
sI19
I2
ssS'211'
p2326
g71
(g76
tp2327
Rp2328
I47
I1
ssS'money'
p2329
g71
(g76
tp2330
Rp2331
I58
I2
sI92
I2
sI30
I2
ssS'valuable'
p2332
g71
(g76
tp2333
Rp2334
I45
I1
ssS'1,880'
p2335
g71
(g76
tp2336
Rp2337
I1
I2
ssS'ch'
p2338
g71
(g76
tp2339
Rp2340
I9
I1
ssS'46,254'
p2341
g71
(g76
tp2342
Rp2343
I46
I1
ssS'weekly'
p2344
g71
(g76
tp2345
Rp2346
I48
I1
sI1
I1
sI69
I1
sI46
I1
ssS'announcement'
p2347
g71
(g76
tp2348
Rp2349
I45
I1
ssS'x-1986'
p2350
g71
(g76
tp2351
Rp2352
I5
I1
ssS'rose'
p2353
g71
(g76
tp2354
Rp2355
I56
I2
sI1
I1
sI58
I4
sI30
I2
ssS'seems'
p2356
g71
(g76
tp2357
Rp2358
I1
I1
ssS'improvement'
p2359
g71
(g76
tp2360
Rp2361
I18
I1
sI27
I1
ssS'treatment'
p2362
g71
(g76
tp2363
Rp2364
I29
I1
ssS'scheduled'
p2365
g71
(g76
tp2366
Rp2367
I80
I1
sI49
I1
sI42
I1
sI45
I1
ssS'around'
p2368
g71
(g76
tp2369
Rp2370
I1
I1
ssS'1986.'
p2371
g71
(g76
tp2372
Rp2373
I12
I1
ssS'3.66'
p2374
g71
(g76
tp2375
Rp2376
I66
I1
ssS'virginia'
p2377
g71
(g76
tp2378
Rp2379
I66
I1
ssS'early'
p2380
g71
(g76
tp2381
Rp2382
I1
I1
sI18
I1
sI12
I1
sI49
I1
ssS'department'
p2383
g71
(g76
tp2384
Rp2385
I57
I2
sI19
I1
sI5
I1
sI46
I2
ssS'inflation'
p2386
g71
(g76
tp2387
Rp2388
I47
I3
ssS'accepted'
p2389
g71
(g76
tp2390
Rp2391
I19
I1
ssS'131.4'
p2392
g71
(g76
tp2393
Rp2394
I41
I1
ssS'reduces'
p2395
g71
(g76
tp2396
Rp2397
I57
I1
ssS"'ve"
p2398
g71
(g76
tp2399
Rp2400
I18
I1
ssS'benefit'
p2401
g71
(g76
tp2402
Rp2403
I56
I1
sI18
I1
ssS'qtly'
p2404
g71
(g76
tp2405
Rp2406
I36
I2
sI37
I1
sI71
I1
sI82
I1
sI83
I1
sI53
I2
sI86
I1
sI89
I1
sI85
I1
ssS'26-feb-1987'
p2407
g71
(g76
tp2408
Rp2409
I99
I2
ssS'cathode'
p2410
g71
(g76
tp2411
Rp2412
I22
I1
ssS'magma'
p2413
g71
(g76
tp2414
Rp2415
I22
I2
ssS'avge'
p2416
g71
(g76
tp2417
Rp2418
I5
I2
ssS'recorded'
p2419
g71
(g76
tp2420
Rp2421
I40
I1
ssS'provides'
p2422
g71
(g76
tp2423
Rp2424
I18
I1
ssS'wheat'
p2425
g71
(g76
tp2426
Rp2427
I97
I1
sI19
I4
sI5
I3
sI6
I2
ssS'business'
p2428
g71
(g76
tp2429
Rp2430
I80
I2
sI97
I1
sI27
I1
sI77
I2
ssS'soyb'
p2431
g71
(g76
tp2432
Rp2433
I97
I1
ssS'tonka'
p2434
g71
(g76
tp2435
Rp2436
I86
I1
ssS'credits'
p2437
g71
(g76
tp2438
Rp2439
I57
I1
sI13
I1
ssS'440.3'
p2440
g71
(g76
tp2441
Rp2442
I11
I1
ssS'on'
p2443
g71
(g76
tp2444
Rp2445
I64
I1
sI1
I3
sI82
I1
sI81
I3
sI40
I1
sI96
I1
sI42
I2
sI75
I1
sI44
I1
sI45
I4
sI46
I1
sI47
I1
sI80
I2
sI56
I1
sI50
I1
sI83
I1
sI23
I2
sI24
I1
sI59
I5
sI74
I2
ssS'conducting'
p2446
g71
(g76
tp2447
Rp2448
I12
I1
ssS'of'
p2449
g71
(g76
tp2450
Rp2451
I1
I8
sI6
I2
sI9
I4
sI10
I10
sI11
I1
sI12
I7
sI13
I2
sI18
I8
sI19
I3
sI22
I1
sI23
I5
sI24
I1
sI27
I2
sI29
I6
sI30
I2
sI37
I1
sI40
I1
sI41
I2
sI42
I1
sI44
I3
sI45
I8
sI46
I1
sI47
I5
sI49
I1
sI50
I1
sI56
I5
sI57
I5
sI58
I3
sI59
I2
sI64
I1
sI66
I1
sI68
I2
sI69
I2
sI74
I8
sI80
I2
sI81
I3
sI82
I1
sI83
I1
sI93
I2
sI96
I2
sI97
I1
ssS'discussed'
p2452
g71
(g76
tp2453
Rp2454
I75
I1
ssS'srw'
p2455
g71
(g76
tp2456
Rp2457
I97
I2
ssS'act'
p2458
g71
(g76
tp2459
Rp2460
I18
I1
ssS'848,600'
p2461
g71
(g76
tp2462
Rp2463
I27
I1
ssS'processor'
p2464
g71
(g76
tp2465
Rp2466
I18
I1
ssS'outlook'
p2467
g71
(g76
tp2468
Rp2469
I59
I1
sI23
I1
ssS'33.7'
p2470
g71
(g76
tp2471
Rp2472
I6
I1
ssS'shrs'
p2473
g71
(g76
tp2474
Rp2475
I65
I1
sI66
I1
sI98
I1
sI13
I2
sI38
I2
ssS'132-1/2'
p2476
g71
(g76
tp2477
Rp2478
I59
I2
ssS'there'
p2479
g71
(g76
tp2480
Rp2481
I1
I3
sI49
I1
sI45
I2
sI47
I1
ssS'brazilian'
p2482
g71
(g76
tp2483
Rp2484
I1
I1
ssS'753'
p2485
g71
(g76
tp2486
Rp2487
I1
I1
ssS'complete'
p2488
g71
(g76
tp2489
Rp2490
I19
I1
ssS'jun'
p2491
g71
(g76
tp2492
Rp2493
I6
I2
ssS'jul'
p2494
g71
(g76
tp2495
Rp2496
I6
I1
ssS'technologies'
p2497
g71
(g76
tp2498
Rp2499
I64
I1
ssS'with'
p2500
g71
(g76
tp2501
Rp2502
I96
I1
sI1
I3
sI69
I2
sI42
I2
sI75
I1
sI12
I1
sI45
I3
sI46
I1
sI47
I1
sI48
I1
sI83
I1
sI59
I2
ssS'4,351'
p2503
g71
(g76
tp2504
Rp2505
I1
I1
ssS'4,350'
p2506
g71
(g76
tp2507
Rp2508
I1
I1
ssS'october'
p2509
g71
(g76
tp2510
Rp2511
I47
I1
ssS'improved'
p2512
g71
(g76
tp2513
Rp2514
I23
I1
ssS'systematics'
p2515
g71
(g76
tp2516
Rp2517
I89
I1
ssS'cyclops'
p2518
g71
(g76
tp2519
Rp2520
I96
I3
ssS'l.a.'
p2521
g71
(g76
tp2522
Rp2523
I97
I1
ssS'pulp'
p2524
g71
(g76
tp2525
Rp2526
I68
I1
ssS'detailed'
p2527
g71
(g76
tp2528
Rp2529
I6
I1
ssS'wants'
p2530
g71
(g76
tp2531
Rp2532
I45
I1
ssS'certain'
p2533
g71
(g76
tp2534
Rp2535
I10
I1
sI44
I1
sI45
I1
ssS'sorg'
p2536
g71
(g76
tp2537
Rp2538
I97
I1
ssS'am'
p2539
g71
(g76
tp2540
Rp2541
I56
I6
sI13
I2
ssS'sales'
p2542
g71
(g76
tp2543
Rp2544
I1
I7
sI38
I2
sI12
I1
sI18
I1
sI23
I1
sI57
I5
sI29
I3
ssS'minneapolis'
p2545
g71
(g76
tp2546
Rp2547
I97
I1
ssS'general'
p2548
g71
(g76
tp2549
Rp2550
I58
I1
ssS'as'
p2551
g71
(g76
tp2552
Rp2553
I1
I4
sI5
I1
sI6
I1
sI9
I1
sI42
I1
sI12
I2
sI45
I1
sI47
I2
sI23
I1
ssS'at'
p2554
g71
(g76
tp2555
Rp2556
I1
I20
sI81
I1
sI40
I2
sI9
I1
sI10
I4
sI45
I1
sI46
I1
sI47
I2
sI49
I1
sI56
I4
sI59
I3
ssS'qtrly'
p2557
g71
(g76
tp2558
Rp2559
I87
I1
ssS'clri'
p2560
g71
(g76
tp2561
Rp2562
I37
I1
ssS'moves'
p2563
g71
(g76
tp2564
Rp2565
I10
I1
ssS'again'
p2566
g71
(g76
tp2567
Rp2568
I1
I1
sI59
I1
ssS'4.7'
p2569
g71
(g76
tp2570
Rp2571
I82
I1
ssS'grain/oilseed'
p2572
g71
(g76
tp2573
Rp2574
I6
I1
ssS'arbitrageurs'
p2575
g71
(g76
tp2576
Rp2577
I45
I2
ssS'98.7'
p2578
g71
(g76
tp2579
Rp2580
I37
I1
ssS'98.8'
p2581
g71
(g76
tp2582
Rp2583
I74
I1
ssS'offered'
p2584
g71
(g76
tp2585
Rp2586
I97
I1
sI59
I10
sI45
I1
ssS'note:1986'
p2587
g71
(g76
tp2588
Rp2589
I83
I1
ssS'includes'
p2590
g71
(g76
tp2591
Rp2592
I66
I1
sI41
I2
sI42
I1
sI11
I1
sI50
I1
sI83
I1
ssS'coverage'
p2593
g71
(g76
tp2594
Rp2595
I57
I1
ssS'included'
p2596
g71
(g76
tp2597
Rp2598
I1
I1
sI59
I1
ssS'stocks'
p2599
g71
(g76
tp2600
Rp2601
I97
I1
ssS'fiscal'
p2602
g71
(g76
tp2603
Rp2604
I56
I3
sI18
I2
sI12
I1
sI23
I1
ssS'booked'
p2605
g71
(g76
tp2606
Rp2607
I1
I1
ssS'assets'
p2608
g71
(g76
tp2609
Rp2610
I40
I1
sI58
I3
sI11
I1
sI44
I1
sI30
I2
ssS'directors'
p2611
g71
(g76
tp2612
Rp2613
I9
I1
sI23
I1
ssS'restored'
p2614
g71
(g76
tp2615
Rp2616
I1
I1
ssS'2,380'
p2617
g71
(g76
tp2618
Rp2619
I1
I1
ssS'111.8'
p2620
g71
(g76
tp2621
Rp2622
I6
I1
ssS'7.15'
p2623
g71
(g76
tp2624
Rp2625
I48
I1
ssS'all'
p2626
g71
(g76
tp2627
Rp2628
I1
I1
sI57
I1
sI45
I1
sI81
I1
sI47
I2
ssS'sealy'
p2629
g71
(g76
tp2630
Rp2631
I12
I2
ssS'dollar'
p2632
g71
(g76
tp2633
Rp2634
I56
I1
sI82
I1
ssS'month'
p2635
g71
(g76
tp2636
Rp2637
I6
I1
sI23
I1
ssS'talks'
p2638
g71
(g76
tp2639
Rp2640
I75
I1
ssS'cincinnati'
p2641
g71
(g76
tp2642
Rp2643
I97
I1
ssS'reluctant'
p2644
g71
(g76
tp2645
Rp2646
I1
I1
ssS'switched'
p2647
g71
(g76
tp2648
Rp2649
I57
I2
ssS'removal'
p2650
g71
(g76
tp2651
Rp2652
I45
I1
ssS'to'
p2653
g71
(g76
tp2654
Rp2655
I1
I14
sI6
I2
sI9
I3
sI10
I9
sI12
I4
sI18
I6
sI19
I3
sI22
I2
sI23
I7
sI24
I1
sI29
I2
sI37
I1
sI40
I3
sI42
I4
sI44
I4
sI45
I7
sI46
I2
sI47
I7
sI48
I1
sI49
I2
sI56
I4
sI57
I5
sI58
I4
sI59
I1
sI66
I1
sI74
I1
sI75
I2
sI80
I4
sI81
I2
sI82
I1
sI95
I2
sI96
I1
ssS'program'
p2656
g71
(g76
tp2657
Rp2658
I19
I1
ssS'dairy'
p2659
g71
(g76
tp2660
Rp2661
I18
I1
ssS'worse'
p2662
g71
(g76
tp2663
Rp2664
I47
I1
ssS'fall'
p2665
g71
(g76
tp2666
Rp2667
I48
I1
sI80
I1
sI77
I2
ssS'1,875'
p2668
g71
(g76
tp2669
Rp2670
I1
I1
ssS'ticket'
p2671
g71
(g76
tp2672
Rp2673
I10
I1
ssS'1,870'
p2674
g71
(g76
tp2675
Rp2676
I1
I1
ssS'2,188,933'
p2677
g71
(g76
tp2678
Rp2679
I27
I1
ssS'--'
p2680
g71
(g76
tp2681
Rp2682
I49
I2
sI19
I1
sI5
I7
sI97
I94
ssS'louis'
p2683
g71
(g76
tp2684
Rp2685
I97
I1
sI59
I2
ssS'4,673,253'
p2686
g71
(g76
tp2687
Rp2688
I98
I1
ssS'1987.'
p2689
g71
(g76
tp2690
Rp2691
I9
I1
ssS'198'
p2692
g71
(g76
tp2693
Rp2694
I58
I1
ssS'195'
p2695
g71
(g76
tp2696
Rp2697
I80
I2
sI77
I2
ssS'3.11'
p2698
g71
(g76
tp2699
Rp2700
I97
I1
ssS'3.12'
p2701
g71
(g76
tp2702
Rp2703
I97
I3
ssS'3.15'
p2704
g71
(g76
tp2705
Rp2706
I5
I2
ssS'3.16'
p2707
g71
(g76
tp2708
Rp2709
I97
I3
ssS'3.17'
p2710
g71
(g76
tp2711
Rp2712
I97
I1
ssS'tex'
p2713
g71
(g76
tp2714
Rp2715
I97
I2
sI10
I1
ssS'rate'
p2716
g71
(g76
tp2717
Rp2718
I82
I1
sI47
I1
sI29
I3
sI45
I1
ssS'enhancement'
p2719
g71
(g76
tp2720
Rp2721
I19
I1
ssS'further'
p2722
g71
(g76
tp2723
Rp2724
I40
I1
sI59
I1
sI47
I1
ssS'investment'
p2725
g71
(g76
tp2726
Rp2727
I96
I2
sI58
I1
ssS'consumers'
p2728
g71
(g76
tp2729
Rp2730
I42
I1
ssS'brackets'
p2731
g71
(g76
tp2732
Rp2733
I6
I1
ssS'section'
p2734
g71
(g76
tp2735
Rp2736
I59
I1
ssS'anniversary'
p2737
g71
(g76
tp2738
Rp2739
I47
I2
ssS'crush'
p2740
g71
(g76
tp2741
Rp2742
I69
I1
ssS'certificates'
p2743
g71
(g76
tp2744
Rp2745
I1
I1
sI97
I1
ssS'coradian'
p2746
g71
(g76
tp2747
Rp2748
I98
I1
ssS'full'
p2749
g71
(g76
tp2750
Rp2751
I82
I1
sI45
I1
sI87
I1
ssS'tags'
p2752
g71
(g76
tp2753
Rp2754
I10
I1
ssS'modify'
p2755
g71
(g76
tp2756
Rp2757
I75
I2
ssS'operating'
p2758
g71
(g76
tp2759
Rp2760
I56
I2
sI64
I1
sI13
I1
ssS'november'
p2761
g71
(g76
tp2762
Rp2763
I29
I1
ssS'strong'
p2764
g71
(g76
tp2765
Rp2766
I56
I2
sI18
I1
sI45
I1
sI23
I1
ssS'newmont'
p2767
g71
(g76
tp2768
Rp2769
I22
I1
ssS'experience'
p2770
g71
(g76
tp2771
Rp2772
I18
I1
ssS'prior'
p2773
g71
(g76
tp2774
Rp2775
I36
I1
sI37
I1
sI71
I1
sI87
I2
sI13
I1
sI45
I1
sI81
I1
sI18
I2
sI53
I1
sI23
I1
sI24
I1
sI89
I1
sI85
I1
ssS'amount'
p2776
g71
(g76
tp2777
Rp2778
I68
I1
ssS'published'
p2779
g71
(g76
tp2780
Rp2781
I1
I1
ssS'action'
p2782
g71
(g76
tp2783
Rp2784
I57
I1
ssS'sept/dec'
p2785
g71
(g76
tp2786
Rp2787
I59
I1
ssS'transit'
p2788
g71
(g76
tp2789
Rp2790
I49
I1
ssS'bid/107-1/2'
p2791
g71
(g76
tp2792
Rp2793
I59
I1
ssS'dificulties'
p2794
g71
(g76
tp2795
Rp2796
I1
I1
ssS'shareholders'
p2797
g71
(g76
tp2798
Rp2799
I40
I2
sI9
I2
sI37
I1
ssS'two'
p2800
g71
(g76
tp2801
Rp2802
I37
I1
sI45
I1
sI13
I1
sI49
I1
sI50
I1
sI83
I2
sI86
I1
sI56
I1
sI95
I2
ssS'558.9'
p2803
g71
(g76
tp2804
Rp2805
I41
I1
ssS'6'
p2806
g71
(g76
tp2807
Rp2808
I5
I1
ssS'minor'
p2809
g71
(g76
tp2810
Rp2811
I36
I1
ssS'obod'
p2812
g71
(g76
tp2813
Rp2814
I36
I1
ssS'company'
p2815
g71
(g76
tp2816
Rp2817
I9
I1
sI10
I4
sI12
I1
sI45
I7
sI18
I3
sI19
I1
sI23
I5
sI56
I1
sI58
I1
ssS'gulfex'
p2818
g71
(g76
tp2819
Rp2820
I68
I2
ssS'10,694,081'
p2821
g71
(g76
tp2822
Rp2823
I98
I1
ssS'producing'
p2824
g71
(g76
tp2825
Rp2826
I42
I1
ssS'61.11'
p2827
g71
(g76
tp2828
Rp2829
I82
I1
ssS'3.98'
p2830
g71
(g76
tp2831
Rp2832
I50
I1
ssS'remain'
p2833
g71
(g76
tp2834
Rp2835
I56
I1
ssS'vs'
p2836
g71
(g76
tp2837
Rp2838
I11
I5
sI13
I9
sI14
I6
sI24
I7
sI27
I6
sI36
I1
sI37
I7
sI38
I8
sI41
I6
sI53
I1
sI65
I7
sI66
I8
sI69
I2
sI71
I1
sI74
I6
sI82
I5
sI83
I1
sI85
I1
sI86
I1
sI87
I2
sI89
I1
sI93
I3
sI98
I7
ssS'nine'
p2839
g71
(g76
tp2840
Rp2841
I53
I1
sI47
I1
sI13
I1
sI14
I1
sI23
I1
ssS'v'
p2842
g71
(g76
tp2843
Rp2844
I5
I6
ssS'yemen'
p2845
g71
(g76
tp2846
Rp2847
I19
I2
ssS'specialized'
p2848
g71
(g76
tp2849
Rp2850
I68
I1
ssS'purchases'
p2851
g71
(g76
tp2852
Rp2853
I19
I1
ssS'share'
p2854
g71
(g76
tp2855
Rp2856
I66
I1
sI40
I1
sI41
I2
sI10
I2
sI12
I1
sI45
I3
sI93
I2
sI18
I4
sI83
I1
sI23
I5
sI56
I2
sI74
I1
ssS'states'
p2857
g71
(g76
tp2858
Rp2859
I44
I1
ssS'exclude'
p2860
g71
(g76
tp2861
Rp2862
I13
I1
ssS'4,340'
p2863
g71
(g76
tp2864
Rp2865
I1
I1
ssS'court'
p2866
g71
(g76
tp2867
Rp2868
I44
I1
ssS'processors'
p2869
g71
(g76
tp2870
Rp2871
I1
I1
sI69
I1
ssS'4,345'
p2872
g71
(g76
tp2873
Rp2874
I1
I1
ssS'13.2'
p2875
g71
(g76
tp2876
Rp2877
I6
I1
ssS'rye'
p2878
g71
(g76
tp2879
Rp2880
I97
I1
ssS'215,000'
p2881
g71
(g76
tp2882
Rp2883
I37
I1
ssS'earnings'
p2884
g71
(g76
tp2885
Rp2886
I40
I1
sI18
I5
sI23
I2
ssS'csp'
p2887
g71
(g76
tp2888
Rp2889
I85
I1
ssS'sedio'
p2890
g71
(g76
tp2891
Rp2892
I10
I2
ssS'872.0'
p2893
g71
(g76
tp2894
Rp2895
I6
I1
ssS'coming'
p2896
g71
(g76
tp2897
Rp2898
I1
I1
ssS'467,000'
p2899
g71
(g76
tp2900
Rp2901
I41
I1
ssS'capitalize'
p2902
g71
(g76
tp2903
Rp2904
I45
I1
ssS'a'
p2905
g71
(g76
tp2906
Rp2907
I1
I3
sI9
I1
sI10
I2
sI12
I1
sI18
I7
sI22
I2
sI23
I14
sI29
I2
sI40
I1
sI41
I2
sI42
I3
sI45
I8
sI47
I6
sI48
I1
sI49
I2
sI50
I1
sI56
I5
sI64
I1
sI68
I1
sI69
I1
sI74
I1
sI81
I2
sI87
I1
sI93
I1
sI96
I2
ssS'short'
p2908
g71
(g76
tp2909
Rp2910
I46
I2
ssS'184,649,000'
p2911
g71
(g76
tp2912
Rp2913
I65
I1
ssS'banks'
p2914
g71
(g76
tp2915
Rp2916
I80
I1
sI81
I3
sI74
I1
ssS'help'
p2917
g71
(g76
tp2918
Rp2919
I10
I1
ssS'september'
p2920
g71
(g76
tp2921
Rp2922
I57
I1
sI42
I1
ssS'january-december'
p2923
g71
(g76
tp2924
Rp2925
I46
I1
ssS'trade'
p2926
g71
(g76
tp2927
Rp2928
I1
I1
sI47
I3
ssS'held'
p2929
g71
(g76
tp2930
Rp2931
I1
I1
sI45
I1
ssS'paper'
p2932
g71
(g76
tp2933
Rp2934
I80
I1
sI76
I2
sI68
I1
ssS'through'
p2935
g71
(g76
tp2936
Rp2937
I97
I2
sI83
I1
sI5
I1
ssS'mcdonalds'
p2938
g71
(g76
tp2939
Rp2940
I18
I1
ssS'1.95'
p2941
g71
(g76
tp2942
Rp2943
I97
I1
ssS'1.92'
p2944
g71
(g76
tp2945
Rp2946
I5
I1
ssS'its'
p2947
g71
(g76
tp2948
Rp2949
I64
I1
sI1
I1
sI68
I1
sI44
I1
sI10
I5
sI12
I1
sI47
I2
sI48
I1
sI49
I1
sI18
I1
sI9
I3
sI22
I1
sI23
I4
sI56
I2
sI27
I1
ssS'24'
p2950
g71
(g76
tp2951
Rp2952
I74
I1
ssS'25'
p2953
g71
(g76
tp2954
Rp2955
I69
I1
sI81
I1
sI9
I1
sI45
I1
sI78
I2
sI49
I1
sI85
I2
sI95
I2
sI94
I2
sI5
I1
ssS'26'
p2956
g71
(g76
tp2957
Rp2958
I49
I1
sI86
I1
ssS'27'
p2959
g71
(g76
tp2960
Rp2961
I1
I1
sI66
I1
sI45
I1
sI49
I1
sI24
I1
sI89
I1
ssS'20'
p2962
g71
(g76
tp2963
Rp2964
I40
I1
sI41
I1
sI18
I1
sI83
I1
sI87
I1
sI27
I1
ssS'22'
p2965
g71
(g76
tp2966
Rp2967
I1
I1
sI37
I1
ssS'23'
p2968
g71
(g76
tp2969
Rp2970
I9
I1
sI5
I1
ssS'28'
p2971
g71
(g76
tp2972
Rp2973
I1
I1
sI47
I1
sI12
I1
sI23
I1
ssS'29'
p2974
g71
(g76
tp2975
Rp2976
I66
I1
sI59
I1
ssS'pct'
p2977
g71
(g76
tp2978
Rp2979
I96
I2
sI40
I3
sI10
I2
sI12
I1
sI47
I1
sI18
I1
sI74
I1
sI23
I3
sI56
I2
sI59
I10
sI29
I1
ssS'mattress'
p2980
g71
(g76
tp2981
Rp2982
I12
I2
ssS'late'
p2983
g71
(g76
tp2984
Rp2985
I1
I1
sI18
I1
sI12
I1
sI45
I1
ssS'blenders'
p2986
g71
(g76
tp2987
Rp2988
I18
I1
ssS'systems'
p2989
g71
(g76
tp2990
Rp2991
I10
I2
sI68
I1
ssS'argentina'
p2992
g71
(g76
tp2993
Rp2994
I1
I1
ssS'argentine'
p2995
g71
(g76
tp2996
Rp2997
I6
I2
ssS'good'
p2998
g71
(g76
tp2999
Rp3000
I56
I1
sI1
I1
ssS'return'
p3001
g71
(g76
tp3002
Rp3003
I40
I1
sI50
I1
ssS'seeking'
p3004
g71
(g76
tp3005
Rp3006
I29
I1
ssS'food'
p3007
g71
(g76
tp3008
Rp3009
I18
I1
ssS'arbitrageur'
p3010
g71
(g76
tp3011
Rp3012
I45
I1
ssS'2,330,000'
p3013
g71
(g76
tp3014
Rp3015
I24
I1
ssS'yr'
p3016
g71
(g76
tp3017
Rp3018
I24
I1
sI74
I2
ssS'association'
p3019
g71
(g76
tp3020
Rp3021
I74
I1
sI29
I1
sI69
I2
ssS'level'
p3022
g71
(g76
tp3023
Rp3024
I59
I1
sI5
I5
ssS'knight'
p3025
g71
(g76
tp3026
Rp3027
I45
I1
ssS'ports'
p3028
g71
(g76
tp3029
Rp3030
I1
I3
ssS'3,035,000'
p3031
g71
(g76
tp3032
Rp3033
I37
I1
ssS'weight'
p3034
g71
(g76
tp3035
Rp3036
I46
I1
ssS'energy'
p3037
g71
(g76
tp3038
Rp3039
I68
I1
ssS'1987/88'
p3040
g71
(g76
tp3041
Rp3042
I1
I1
ssS'138.9'
p3043
g71
(g76
tp3044
Rp3045
I41
I1
ssS'oil'
p3046
g71
(g76
tp3047
Rp3048
I68
I1
sI6
I2
ssS'fewer'
p3049
g71
(g76
tp3050
Rp3051
I81
I1
ssS'45.00'
p3052
g71
(g76
tp3053
Rp3054
I74
I1
ssS'operation'
p3055
g71
(g76
tp3056
Rp3057
I10
I1
ssS'20.0'
p3058
g71
(g76
tp3059
Rp3060
I6
I3
ssS'20.4'
p3061
g71
(g76
tp3062
Rp3063
I6
I1
ssS'20.9'
p3064
g71
(g76
tp3065
Rp3066
I37
I1
ssS'since'
p3067
g71
(g76
tp3068
Rp3069
I1
I1
sI29
I1
sI47
I1
ssS'douglas'
p3070
g71
(g76
tp3071
Rp3072
I18
I5
ssS'research'
p3073
g71
(g76
tp3074
Rp3075
I56
I1
sI37
I1
ssS'1.75'
p3076
g71
(g76
tp3077
Rp3078
I97
I2
ssS'amarillo/'
p3079
g71
(g76
tp3080
Rp3081
I97
I1
ssS'1.70'
p3082
g71
(g76
tp3083
Rp3084
I97
I1
ssS'1.71'
p3085
g71
(g76
tp3086
Rp3087
I97
I1
ssS'shipment'
p3088
g71
(g76
tp3089
Rp3090
I1
I2
sI19
I1
ssS'1.73'
p3091
g71
(g76
tp3092
Rp3093
I97
I3
ssS'indexation'
p3094
g71
(g76
tp3095
Rp3096
I47
I1
ssS'3.09'
p3097
g71
(g76
tp3098
Rp3099
I65
I1
ssS'3.08'
p3100
g71
(g76
tp3101
Rp3102
I97
I1
sI14
I1
sI23
I1
ssS'3.03'
p3103
g71
(g76
tp3104
Rp3105
I48
I1
sI97
I2
ssS'alleviating'
p3106
g71
(g76
tp3107
Rp3108
I1
I1
ssS'friday'
p3109
g71
(g76
tp3110
Rp3111
I80
I1
ssS'3.07'
p3112
g71
(g76
tp3113
Rp3114
I97
I1
sI14
I1
sI23
I1
ssS'3.06'
p3115
g71
(g76
tp3116
Rp3117
I97
I1
ssS'3.05'
p3118
g71
(g76
tp3119
Rp3120
I97
I1
ssS'3.04'
p3121
g71
(g76
tp3122
Rp3123
I97
I2
ssS'extraordinary'
p3124
g71
(g76
tp3125
Rp3126
I11
I1
sI93
I1
ssS'terminals'
p3127
g71
(g76
tp3128
Rp3129
I10
I1
ssS'base'
p3130
g71
(g76
tp3131
Rp3132
I45
I1
ssS'members'
p3133
g71
(g76
tp3134
Rp3135
I69
I2
ssS'1984.'
p3136
g71
(g76
tp3137
Rp3138
I5
I1
ssS'rises'
p3139
g71
(g76
tp3140
Rp3141
I92
I2
sI45
I1
ssS'beginning'
p3142
g71
(g76
tp3143
Rp3144
I56
I1
sI83
I1
ssS'117,866'
p3145
g71
(g76
tp3146
Rp3147
I69
I1
ssS'2,375'
p3148
g71
(g76
tp3149
Rp3150
I1
I1
ssS'benefits'
p3151
g71
(g76
tp3152
Rp3153
I18
I1
ssS'noted'
p3154
g71
(g76
tp3155
Rp3156
I45
I2
ssS'american'
p3157
g71
(g76
tp3158
Rp3159
I44
I2
ssS'bushel'
p3160
g71
(g76
tp3161
Rp3162
I97
I1
ssS'copper'
p3163
g71
(g76
tp3164
Rp3165
I22
I3
ssS'major'
p3166
g71
(g76
tp3167
Rp3168
I80
I1
sI81
I1
sI18
I1
ssS'usda'
p3169
g71
(g76
tp3170
Rp3171
I19
I1
sI46
I1
ssS'3,971,000'
p3172
g71
(g76
tp3173
Rp3174
I24
I1
ssS'done'
p3175
g71
(g76
tp3176
Rp3177
I81
I1
ssS'least'
p3178
g71
(g76
tp3179
Rp3180
I40
I1
sI47
I1
ssS'loadings'
p3181
g71
(g76
tp3182
Rp3183
I59
I1
ssS'herbicides'
p3184
g71
(g76
tp3185
Rp3186
I45
I1
ssS'needed'
p3187
g71
(g76
tp3188
Rp3189
I47
I1
ssS'leading'
p3190
g71
(g76
tp3191
Rp3192
I47
I1
ssS'st.'
p3193
g71
(g76
tp3194
Rp3195
I97
I1
ssS'bid/145'
p3196
g71
(g76
tp3197
Rp3198
I59
I1
ssS'bid/140'
p3199
g71
(g76
tp3200
Rp3201
I59
I3
ssS'station'
p3202
g71
(g76
tp3203
Rp3204
I59
I1
ssS'statement'
p3205
g71
(g76
tp3206
Rp3207
I81
I1
sI45
I1
ssS'hundred'
p3208
g71
(g76
tp3209
Rp3210
I1
I1
ssS'selling'
p3211
g71
(g76
tp3212
Rp3213
I1
I1
ssS'5.92'
p3214
g71
(g76
tp3215
Rp3216
I74
I1
ssS'5.93'
p3217
g71
(g76
tp3218
Rp3219
I1
I1
ssS'ascs'
p3220
g71
(g76
tp3221
Rp3222
I97
I2
ssS'bid/132-1/2'
p3223
g71
(g76
tp3224
Rp3225
I59
I1
ssS'part'
p3226
g71
(g76
tp3227
Rp3228
I1
I1
sI10
I1
ssS'2,692.4'
p3229
g71
(g76
tp3230
Rp3231
I6
I1
ssS'licensee'
p3232
g71
(g76
tp3233
Rp3234
I10
I1
ssS'schlang'
p3235
g71
(g76
tp3236
Rp3237
I45
I5
ssS'1986/87'
p3238
g71
(g76
tp3239
Rp3240
I1
I1
sI6
I2
ssS'cbco'
p3241
g71
(g76
tp3242
Rp3243
I11
I1
ssS'4.78'
p3244
g71
(g76
tp3245
Rp3246
I97
I1
ssS'harman'
p3247
g71
(g76
tp3248
Rp3249
I41
I1
ssS'0.99'
p3250
g71
(g76
tp3251
Rp3252
I5
I1
ssS'4,841,000'
p3253
g71
(g76
tp3254
Rp3255
I13
I1
ssS'outstanding'
p3256
g71
(g76
tp3257
Rp3258
I80
I1
sI96
I1
sI10
I1
sI12
I1
ssS'imports'
p3259
g71
(g76
tp3260
Rp3261
I46
I3
sI47
I1
ssS'philippine'
p3262
g71
(g76
tp3263
Rp3264
I82
I3
ssS'showers'
p3265
g71
(g76
tp3266
Rp3267
I1
I1
ssS'orders'
p3268
g71
(g76
tp3269
Rp3270
I56
I2
ssS'3,376,000'
p3271
g71
(g76
tp3272
Rp3273
I13
I1
ssS'depending'
p3274
g71
(g76
tp3275
Rp3276
I45
I1
ssS'middlemen'
p3277
g71
(g76
tp3278
Rp3279
I1
I1
ssS'also'
p3280
g71
(g76
tp3281
Rp3282
I1
I1
sI69
I1
sI6
I1
sI9
I1
sI10
I2
sI18
I2
ssS'291.8'
p3283
g71
(g76
tp3284
Rp3285
I56
I1
sI13
I1
ssS'chairman'
p3286
g71
(g76
tp3287
Rp3288
I18
I1
ssS'93.4'
p3289
g71
(g76
tp3290
Rp3291
I37
I1
ssS'towards'
p3292
g71
(g76
tp3293
Rp3294
I47
I1
ssS'electric'
p3295
g71
(g76
tp3296
Rp3297
I66
I1
ssS'119.05'
p3298
g71
(g76
tp3299
Rp3300
I19
I1
ssS'4,480'
p3301
g71
(g76
tp3302
Rp3303
I1
I1
ssS'approves'
p3304
g71
(g76
tp3305
Rp3306
I9
I1
ssS'350'
p3307
g71
(g76
tp3308
Rp3309
I1
I1
ssS'tultex'
p3310
g71
(g76
tp3311
Rp3312
I71
I1
ssS'quota'
p3313
g71
(g76
tp3314
Rp3315
I42
I1
sI75
I2
sI46
I5
ssS'75'
p3316
g71
(g76
tp3317
Rp3318
I10
I1
ssS'shareholder'
p3319
g71
(g76
tp3320
Rp3321
I18
I1
ssS'plan'
p3322
g71
(g76
tp3323
Rp3324
I10
I1
sI47
I5
ssS'significant'
p3325
g71
(g76
tp3326
Rp3327
I29
I1
ssS'houston-based'
p3328
g71
(g76
tp3329
Rp3330
I68
I1
ssS'approved'
p3331
g71
(g76
tp3332
Rp3333
I9
I1
sI23
I1
ssS'kc'
p3334
g71
(g76
tp3335
Rp3336
I97
I1
ssS'299.2'
p3337
g71
(g76
tp3338
Rp3339
I11
I1
ssS'dealers'
p3340
g71
(g76
tp3341
Rp3342
I59
I1
ssS'87.4'
p3343
g71
(g76
tp3344
Rp3345
I6
I1
ssS'cover'
p3346
g71
(g76
tp3347
Rp3348
I57
I2
sI19
I1
sI47
I1
ssS'bodies'
p3349
g71
(g76
tp3350
Rp3351
I44
I1
ssS'2.04'
p3352
g71
(g76
tp3353
Rp3354
I97
I4
ssS'latest'
p3355
g71
(g76
tp3356
Rp3357
I81
I1
sI66
I1
sI30
I2
ssS'bulletin'
p3358
g71
(g76
tp3359
Rp3360
I48
I1
ssS'favorable'
p3361
g71
(g76
tp3362
Rp3363
I40
I1
sI29
I1
ssS'session'
p3364
g71
(g76
tp3365
Rp3366
I75
I1
sI59
I1
ssS'freight'
p3367
g71
(g76
tp3368
Rp3369
I59
I2
ssS'find'
p3370
g71
(g76
tp3371
Rp3372
I45
I1
ssS'blender'
p3373
g71
(g76
tp3374
Rp3375
I18
I1
ssS'impact'
p3376
g71
(g76
tp3377
Rp3378
I10
I1
ssS'bfd'
p3379
g71
(g76
tp3380
Rp3381
I14
I1
ssS'merger'
p3382
g71
(g76
tp3383
Rp3384
I74
I1
ssS'stockholders'
p3385
g71
(g76
tp3386
Rp3387
I24
I1
ssS'226,653,000'
p3388
g71
(g76
tp3389
Rp3390
I66
I1
ssS'canron'
p3391
g71
(g76
tp3392
Rp3393
I93
I1
ssS'equity'
p3394
g71
(g76
tp3395
Rp3396
I40
I1
sI83
I1
ssS'gains'
p3397
g71
(g76
tp3398
Rp3399
I50
I1
sI29
I1
ssS'ingalls'
p3400
g71
(g76
tp3401
Rp3402
I45
I1
ssS'b'
p3403
g71
(g76
tp3404
Rp3405
I87
I1
sI23
I1
ssS'competing'
p3406
g71
(g76
tp3407
Rp3408
I45
I1
ssS'during'
p3409
g71
(g76
tp3410
Rp3411
I46
I1
ssS'1.85'
p3412
g71
(g76
tp3413
Rp3414
I97
I2
ssS'firms'
p3415
g71
(g76
tp3416
Rp3417
I96
I2
sI69
I1
ssS'1.87'
p3418
g71
(g76
tp3419
Rp3420
I97
I1
ssS'common'
p3421
g71
(g76
tp3422
Rp3423
I96
I2
sI40
I1
sI9
I1
sI10
I3
sI23
I1
sI74
I3
ssS'switzerland'
p3424
g71
(g76
tp3425
Rp3426
I10
I1
ssS'x'
p3427
g71
(g76
tp3428
Rp3429
I5
I1
ssS'river'
p3430
g71
(g76
tp3431
Rp3432
I59
I9
ssS'set'
p3433
g71
(g76
tp3434
Rp3435
I29
I1
sI46
I1
ssS'310'
p3436
g71
(g76
tp3437
Rp3438
I94
I2
ssS'164.6'
p3439
g71
(g76
tp3440
Rp3441
I6
I1
ssS'kilos'
p3442
g71
(g76
tp3443
Rp3444
I1
I2
ssS'45-50'
p3445
g71
(g76
tp3446
Rp3447
I56
I1
ssS'2.9'
p3448
g71
(g76
tp3449
Rp3450
I64
I1
sI38
I1
ssS'individual'
p3451
g71
(g76
tp3452
Rp3453
I45
I1
ssS'are'
p3454
g71
(g76
tp3455
Rp3456
I1
I5
sI40
I1
sI10
I1
sI44
I1
sI45
I1
sI46
I3
sI80
I1
sI81
I1
sI23
I1
sI56
I2
ssS'tender'
p3457
g71
(g76
tp3458
Rp3459
I45
I2
ssS'2.1'
p3460
g71
(g76
tp3461
Rp3462
I92
I2
ssS'2.0'
p3463
g71
(g76
tp3464
Rp3465
I6
I2
ssS'2.7'
p3466
g71
(g76
tp3467
Rp3468
I41
I1
ssS'2.6'
p3469
g71
(g76
tp3470
Rp3471
I41
I1
ssS'declined'
p3472
g71
(g76
tp3473
Rp3474
I80
I1
sI23
I1
ssS'2.4'
p3475
g71
(g76
tp3476
Rp3477
I12
I1
ssS'currently'
p3478
g71
(g76
tp3479
Rp3480
I1
I1
ssS'315.2'
p3481
g71
(g76
tp3482
Rp3483
I14
I1
ssS'classes'
p3484
g71
(g76
tp3485
Rp3486
I23
I1
ssS'various'
p3487
g71
(g76
tp3488
Rp3489
I18
I1
sI44
I1
ssS'toledo'
p3490
g71
(g76
tp3491
Rp3492
I97
I2
ssS'probably'
p3493
g71
(g76
tp3494
Rp3495
I18
I1
ssS'conditions'
p3496
g71
(g76
tp3497
Rp3498
I40
I1
sI10
I1
sI44
I1
ssS'available'
p3499
g71
(g76
tp3500
Rp3501
I1
I1
sI11
I1
sI5
I1
ssS'initially'
p3502
g71
(g76
tp3503
Rp3504
I47
I1
ssS'dividends'
p3505
g71
(g76
tp3506
Rp3507
I13
I1
ssS'sold'
p3508
g71
(g76
tp3509
Rp3510
I64
I1
sI1
I2
sI10
I1
sI96
I1
ssS'110,311,000'
p3511
g71
(g76
tp3512
Rp3513
I66
I1
ssS'prescott'
p3514
g71
(g76
tp3515
Rp3516
I45
I1
ssS'importers'
p3517
g71
(g76
tp3518
Rp3519
I75
I1
ssS'dividend'
p3520
g71
(g76
tp3521
Rp3522
I36
I1
sI37
I1
sI71
I1
sI82
I2
sI83
I1
sI53
I1
sI86
I1
sI23
I3
sI24
I1
ssS'1,850'
p3523
g71
(g76
tp3524
Rp3525
I1
I1
ssS'both'
p3526
g71
(g76
tp3527
Rp3528
I59
I1
sI27
I1
sI45
I1
sI23
I1
ssS'prospects'
p3529
g71
(g76
tp3530
Rp3531
I56
I2
sI1
I1
ssS'last'
p3532
g71
(g76
tp3533
Rp3534
I1
I1
sI69
I2
sI40
I1
sI12
I1
sI47
I1
sI18
I1
ssS'annual'
p3535
g71
(g76
tp3536
Rp3537
I40
I1
sI9
I1
sI47
I1
sI87
I2
sI24
I2
sI29
I1
ssS'foreign'
p3538
g71
(g76
tp3539
Rp3540
I48
I2
sI47
I3
ssS'1.66'
p3541
g71
(g76
tp3542
Rp3543
I97
I1
ssS'connection'
p3544
g71
(g76
tp3545
Rp3546
I12
I1
ssS'anti-inflation'
p3547
g71
(g76
tp3548
Rp3549
I47
I1
ssS'1.68'
p3550
g71
(g76
tp3551
Rp3552
I97
I1
ssS'supply'
p3553
g71
(g76
tp3554
Rp3555
I59
I1
sI92
I2
ssS'reasons'
p3556
g71
(g76
tp3557
Rp3558
I23
I1
ssS'loan'
p3559
g71
(g76
tp3560
Rp3561
I80
I1
sI74
I1
sI5
I2
ssS'mariotime'
p3562
g71
(g76
tp3563
Rp3564
I44
I1
ssS'vessel'
p3565
g71
(g76
tp3566
Rp3567
I59
I1
ssS'throughout'
p3568
g71
(g76
tp3569
Rp3570
I1
I1
ssS'1985.'
p3571
g71
(g76
tp3572
Rp3573
I40
I1
ssS'decline'
p3574
g71
(g76
tp3575
Rp3576
I56
I1
sI12
I1
ssS'n.v.'
p3577
g71
(g76
tp3578
Rp3579
I10
I1
ssS'monthly'
p3580
g71
(g76
tp3581
Rp3582
I47
I1
ssS'due'
p3583
g71
(g76
tp3584
Rp3585
I49
I1
sI12
I2
sI81
I1
sI23
I1
ssS'213,470,000'
p3586
g71
(g76
tp3587
Rp3588
I65
I1
ssS'territory'
p3589
g71
(g76
tp3590
Rp3591
I66
I1
ssS'meeting'
p3592
g71
(g76
tp3593
Rp3594
I40
I1
sI9
I1
sI42
I1
sI45
I1
ssS'sww'
p3595
g71
(g76
tp3596
Rp3597
I97
I2
ssS'4'
p3598
g71
(g76
tp3599
Rp3600
I49
I1
ssS'firm'
p3601
g71
(g76
tp3602
Rp3603
I42
I1
ssS'chemlawn'
p3604
g71
(g76
tp3605
Rp3606
I45
I11
ssS'6.13'
p3607
g71
(g76
tp3608
Rp3609
I1
I1
ssS'gas'
p3610
g71
(g76
tp3611
Rp3612
I68
I1
ssS'priced'
p3613
g71
(g76
tp3614
Rp3615
I97
I1
ssS'fund'
p3616
g71
(g76
tp3617
Rp3618
I50
I1
sI83
I2
ssS'demand'
p3619
g71
(g76
tp3620
Rp3621
I59
I1
ssS'prices'
p3622
g71
(g76
tp3623
Rp3624
I1
I1
sI5
I1
sI47
I2
ssS'cpml'
p3625
g71
(g76
tp3626
Rp3627
I10
I1
ssS'grains'
p3628
g71
(g76
tp3629
Rp3630
I6
I1
ssS'frozen'
p3631
g71
(g76
tp3632
Rp3633
I18
I1
ssS'mln'
p3634
g71
(g76
tp3635
Rp3636
I1
I5
sI9
I2
sI10
I1
sI11
I6
sI12
I2
sI13
I8
sI14
I7
sI23
I4
sI24
I1
sI27
I4
sI29
I3
sI30
I2
sI37
I4
sI38
I7
sI41
I6
sI42
I1
sI45
I3
sI47
I2
sI56
I5
sI57
I2
sI58
I4
sI64
I2
sI65
I3
sI66
I4
sI74
I7
sI76
I2
sI77
I2
sI78
I2
sI80
I4
sI81
I2
sI82
I1
sI94
I2
sI95
I2
sI96
I1
sI98
I2
ssS'bid/135'
p3637
g71
(g76
tp3638
Rp3639
I59
I1
ssS'pace'
p3640
g71
(g76
tp3641
Rp3642
I56
I1
sI29
I1
ssS'involved'
p3643
g71
(g76
tp3644
Rp3645
I45
I2
ssS'19.5'
p3646
g71
(g76
tp3647
Rp3648
I27
I1
ssS'19.6'
p3649
g71
(g76
tp3650
Rp3651
I37
I1
ssS'cents'
p3652
g71
(g76
tp3653
Rp3654
I22
I1
ssS'averaging'
p3655
g71
(g76
tp3656
Rp3657
I47
I1
ssS'ready'
p3658
g71
(g76
tp3659
Rp3660
I45
I1
ssS'65.06'
p3661
g71
(g76
tp3662
Rp3663
I80
I1
ssS'7/1/82'
p3664
g71
(g76
tp3665
Rp3666
I5
I1
ssS'9'
p3667
g71
(g76
tp3668
Rp3669
I46
I1
ssS'higher'
p3670
g71
(g76
tp3671
Rp3672
I12
I1
sI45
I2
ssS'development'
p3673
g71
(g76
tp3674
Rp3675
I56
I1
ssS'bonus'
p3676
g71
(g76
tp3677
Rp3678
I19
I4
ssS'yesterday'
p3679
g71
(g76
tp3680
Rp3681
I81
I1
sI58
I1
sI59
I2
ssS'levels'
p3682
g71
(g76
tp3683
Rp3684
I1
I1
ssS'purpose'
p3685
g71
(g76
tp3686
Rp3687
I58
I1
ssS'recent'
p3688
g71
(g76
tp3689
Rp3690
I56
I1
sI1
I1
ssS'15.0'
p3691
g71
(g76
tp3692
Rp3693
I6
I1
ssS'lower'
p3694
g71
(g76
tp3695
Rp3696
I1
I1
sI59
I2
sI12
I1
sI23
I1
ssS'15.8'
p3697
g71
(g76
tp3698
Rp3699
I14
I1
ssS'15.9'
p3700
g71
(g76
tp3701
Rp3702
I74
I1
sI6
I1
ssS'5.86'
p3703
g71
(g76
tp3704
Rp3705
I74
I1
ssS'5.81'
p3706
g71
(g76
tp3707
Rp3708
I1
I1
ssS'organization'
p3709
g71
(g76
tp3710
Rp3711
I42
I1
sI75
I1
ssS'370,500'
p3712
g71
(g76
tp3713
Rp3714
I96
I1
ssS'all-star'
p3715
g71
(g76
tp3716
Rp3717
I83
I1
ssS'end-day'
p3718
g71
(g76
tp3719
Rp3720
I49
I1
ssS'over-the-counter-'
p3721
g71
(g76
tp3722
Rp3723
I45
I1
ssS'cut'
p3724
g71
(g76
tp3725
Rp3726
I96
I1
ssS'guaranteed'
p3727
g71
(g76
tp3728
Rp3729
I50
I1
ssS'76.1'
p3730
g71
(g76
tp3731
Rp3732
I6
I1
ssS'2.18'
p3733
g71
(g76
tp3734
Rp3735
I97
I1
ssS'2.17'
p3736
g71
(g76
tp3737
Rp3738
I97
I2
ssS'guarantees'
p3739
g71
(g76
tp3740
Rp3741
I57
I1
ssS'administrative'
p3742
g71
(g76
tp3743
Rp3744
I12
I1
ssS'harvesting'
p3745
g71
(g76
tp3746
Rp3747
I1
I1
ssS'customers'
p3748
g71
(g76
tp3749
Rp3750
I45
I1
ssS'australia'
p3751
g71
(g76
tp3752
Rp3753
I18
I1
ssS'march'
p3754
g71
(g76
tp3755
Rp3756
I1
I1
sI36
I2
sI37
I1
sI6
I2
sI71
I1
sI87
I1
sI12
I1
sI45
I1
sI82
I1
sI83
I1
sI53
I2
sI86
I2
sI23
I2
sI24
I1
sI89
I1
sI59
I3
ssS'84,250'
p3757
g71
(g76
tp3758
Rp3759
I69
I1
ssS'bid'
p3760
g71
(g76
tp3761
Rp3762
I59
I1
sI45
I1
sI47
I1
ssS'bit'
p3763
g71
(g76
tp3764
Rp3765
I23
I1
ssS'formal'
p3766
g71
(g76
tp3767
Rp3768
I75
I1
ssS'd'
p3769
g71
(g76
tp3770
Rp3771
I66
I1
ssS'follows'
p3772
g71
(g76
tp3773
Rp3774
I75
I1
sI5
I1
sI6
I1
ssS'duluth'
p3775
g71
(g76
tp3776
Rp3777
I97
I2
ssS'continue'
p3778
g71
(g76
tp3779
Rp3780
I56
I1
sI10
I1
ssS'67.62'
p3781
g71
(g76
tp3782
Rp3783
I50
I1
ssS'some'
p3784
g71
(g76
tp3785
Rp3786
I1
I1
ssS'3.7'
p3787
g71
(g76
tp3788
Rp3789
I6
I1
ssS'added'
p3790
g71
(g76
tp3791
Rp3792
I64
I1
ssS'3.2'
p3793
g71
(g76
tp3794
Rp3795
I6
I1
ssS'examples'
p3796
g71
(g76
tp3797
Rp3798
I45
I1
ssS'3.8'
p3799
g71
(g76
tp3800
Rp3801
I45
I1
ssS'delivered'
p3802
g71
(g76
tp3803
Rp3804
I1
I1
ssS'per'
p3805
g71
(g76
tp3806
Rp3807
I1
I3
sI66
I1
sI82
I1
sI5
I1
sI97
I2
sI40
I1
sI10
I2
sI11
I1
sI13
I1
sI45
I2
sI50
I1
sI19
I1
sI83
I1
sI74
I1
ssS'debra'
p3808
g71
(g76
tp3809
Rp3810
I45
I1
ssS'wheat/barley'
p3811
g71
(g76
tp3812
Rp3813
I5
I1
ssS'4.85'
p3814
g71
(g76
tp3815
Rp3816
I97
I2
ssS'4.80'
p3817
g71
(g76
tp3818
Rp3819
I97
I1
ssS'4.81'
p3820
g71
(g76
tp3821
Rp3822
I97
I1
ssS'be'
p3823
g71
(g76
tp3824
Rp3825
I64
I1
sI1
I4
sI44
I2
sI10
I2
sI75
I1
sI12
I4
sI45
I4
sI47
I1
sI80
I1
sI81
I1
sI18
I2
sI19
I1
sI23
I1
sI56
I1
sI57
I1
sI42
I1
ssS'tankers'
p3826
g71
(g76
tp3827
Rp3828
I49
I1
ssS'run'
p3829
g71
(g76
tp3830
Rp3831
I56
I1
ssS'two-for-one'
p3832
g71
(g76
tp3833
Rp3834
I9
I1
ssS'779'
p3835
g71
(g76
tp3836
Rp3837
I82
I1
ssS'7.20'
p3838
g71
(g76
tp3839
Rp3840
I48
I1
ssS'4.65'
p3841
g71
(g76
tp3842
Rp3843
I5
I2
ssS'feb'
p3844
g71
(g76
tp3845
Rp3846
I96
I1
sI69
I1
sI6
I8
sI76
I2
sI77
I2
sI78
I2
sI92
I2
sI94
I2
sI95
I2
ssS'4.68'
p3847
g71
(g76
tp3848
Rp3849
I97
I2
ssS'abroad'
p3850
g71
(g76
tp3851
Rp3852
I47
I1
ssS'pipeline'
p3853
g71
(g76
tp3854
Rp3855
I64
I1
ssS'117.6'
p3856
g71
(g76
tp3857
Rp3858
I6
I1
ssS'range'
p3859
g71
(g76
tp3860
Rp3861
I56
I1
sI18
I1
ssS'regular'
p3862
g71
(g76
tp3863
Rp3864
I49
I1
sI85
I1
sI89
I1
ssS'beans'
p3865
g71
(g76
tp3866
Rp3867
I57
I2
ssS'73'
p3868
g71
(g76
tp3869
Rp3870
I14
I1
ssS'72'
p3871
g71
(g76
tp3872
Rp3873
I24
I2
sI65
I1
ssS'into'
p3874
g71
(g76
tp3875
Rp3876
I45
I1
ssS'within'
p3877
g71
(g76
tp3878
Rp3879
I44
I1
sI47
I1
ssS'80.8'
p3880
g71
(g76
tp3881
Rp3882
I6
I1
ssS'82.7'
p3883
g71
(g76
tp3884
Rp3885
I6
I1
ssS'bankruptcy'
p3886
g71
(g76
tp3887
Rp3888
I44
I1
ssS'canal'
p3889
g71
(g76
tp3890
Rp3891
I49
I3
ssS'computer'
p3892
g71
(g76
tp3893
Rp3894
I10
I7
sI37
I1
ssS'1,850,000'
p3895
g71
(g76
tp3896
Rp3897
I46
I1
ssS'long'
p3898
g71
(g76
tp3899
Rp3900
I82
I2
sI19
I1
ssS'custom'
p3901
g71
(g76
tp3902
Rp3903
I68
I1
ssS'1.52'
p3904
g71
(g76
tp3905
Rp3906
I97
I1
ssS'1.53'
p3907
g71
(g76
tp3908
Rp3909
I18
I1
sI27
I1
ssS'1.50'
p3910
g71
(g76
tp3911
Rp3912
I97
I5
sI10
I1
ssS'1.51'
p3913
g71
(g76
tp3914
Rp3915
I97
I1
ssS'1.56'
p3916
g71
(g76
tp3917
Rp3918
I97
I3
sI5
I1
ssS'1.54'
p3919
g71
(g76
tp3920
Rp3921
I97
I2
ssS'forward'
p3922
g71
(g76
tp3923
Rp3924
I11
I1
ssS'1.59'
p3925
g71
(g76
tp3926
Rp3927
I97
I1
sI14
I1
ssS'oilseeds'
p3928
g71
(g76
tp3929
Rp3930
I6
I1
ssS'manufacture'
p3931
g71
(g76
tp3932
Rp3933
I68
I1
ssS'collapsed'
p3934
g71
(g76
tp3935
Rp3936
I47
I1
ssS'1985/86'
p3937
g71
(g76
tp3938
Rp3939
I6
I1
ssS'hopes'
p3940
g71
(g76
tp3941
Rp3942
I45
I1
ssS'subsidiary'
p3943
g71
(g76
tp3944
Rp3945
I56
I1
sI44
I2
sI22
I1
ssS'wnx'
p3946
g71
(g76
tp3947
Rp3948
I45
I1
ssS'raising'
p3949
g71
(g76
tp3950
Rp3951
I23
I1
ssS'licensees'
p3952
g71
(g76
tp3953
Rp3954
I12
I1
ssS'declarations'
p3955
g71
(g76
tp3956
Rp3957
I75
I1
ssS'up'
p3958
g71
(g76
tp3959
Rp3960
I40
I2
sI10
I1
sI45
I1
sI29
I1
sI18
I1
sI56
I1
sI59
I5
sI42
I1
ssS'us'
p3961
g71
(g76
tp3962
Rp3963
I18
I1
ssS'midday'
p3964
g71
(g76
tp3965
Rp3966
I1
I1
ssS'bid/127-1/2'
p3967
g71
(g76
tp3968
Rp3969
I59
I1
ssS'20.792'
p3970
g71
(g76
tp3971
Rp3972
I82
I1
ssS'engineering'
p3973
g71
(g76
tp3974
Rp3975
I56
I1
sI85
I1
ssS'2,666,000'
p3976
g71
(g76
tp3977
Rp3978
I98
I1
ssS'2130'
p3979
g71
(g76
tp3980
Rp3981
I81
I1
ssS'bid/120'
p3982
g71
(g76
tp3983
Rp3984
I59
I1
ssS'107.3'
p3985
g71
(g76
tp3986
Rp3987
I6
I1
ssS'nar'
p3988
g71
(g76
tp3989
Rp3990
I29
I2
ssS'application'
p3991
g71
(g76
tp3992
Rp3993
I45
I1
ssS'3.23'
p3994
g71
(g76
tp3995
Rp3996
I97
I1
ssS'3.25'
p3997
g71
(g76
tp3998
Rp3999
I5
I1
ssS'income'
p4000
g71
(g76
tp4001
Rp4002
I50
I1
ssS'corn/sorghum'
p4003
g71
(g76
tp4004
Rp4005
I5
I1
ssS'pesticides'
p4006
g71
(g76
tp4007
Rp4008
I45
I1
ssS'principle'
p4009
g71
(g76
tp4010
Rp4011
I44
I1
ssS'kansas'
p4012
g71
(g76
tp4013
Rp4014
I97
I1
ssS'generated'
p4015
g71
(g76
tp4016
Rp4017
I10
I1
ssS'ago'
p4018
g71
(g76
tp4019
Rp4020
I48
I1
sI56
I1
sI69
I1
ssS'svm'
p4021
g71
(g76
tp4022
Rp4023
I45
I1
ssS'practically'
p4024
g71
(g76
tp4025
Rp4026
I1
I1
ssS'beverage'
p4027
g71
(g76
tp4028
Rp4029
I23
I1
ssS'presenting'
p4030
g71
(g76
tp4031
Rp4032
I75
I1
ssS'6.20'
p4033
g71
(g76
tp4034
Rp4035
I74
I1
ssS'trustco'
p4036
g71
(g76
tp4037
Rp4038
I40
I3
ssS'issued'
p4039
g71
(g76
tp4040
Rp4041
I12
I1
ssS'results'
p4042
g71
(g76
tp4043
Rp4044
I27
I2
sI12
I1
sI13
I1
sI93
I1
ssS'37,000'
p4045
g71
(g76
tp4046
Rp4047
I19
I1
ssS'ncnb'
p4048
g71
(g76
tp4049
Rp4050
I74
I1
ssS'go'
p4051
g71
(g76
tp4052
Rp4053
I45
I1
ssS'adjustment'
p4054
g71
(g76
tp4055
Rp4056
I27
I1
ssS'covertible'
p4057
g71
(g76
tp4058
Rp4059
I1
I1
ssS'seemed'
p4060
g71
(g76
tp4061
Rp4062
I47
I1
ssS'stable'
p4063
g71
(g76
tp4064
Rp4065
I40
I1
ssS'quarterly'
p4066
g71
(g76
tp4067
Rp4068
I71
I1
sI23
I2
ssS'include'
p4069
g71
(g76
tp4070
Rp4071
I75
I1
sI74
I2
sI27
I1
sI69
I1
sI93
I1
ssS'resources'
p4072
g71
(g76
tp4073
Rp4074
I66
I1
ssS'garden'
p4075
g71
(g76
tp4076
Rp4077
I45
I1
ssS'languished'
p4078
g71
(g76
tp4079
Rp4080
I45
I1
ssS'continued'
p4081
g71
(g76
tp4082
Rp4083
I1
I1
sI23
I1
ssS'2,516,000'
p4084
g71
(g76
tp4085
Rp4086
I37
I1
ssS'cdin'
p4087
g71
(g76
tp4088
Rp4089
I98
I1
ssS'experiencing'
p4090
g71
(g76
tp4091
Rp4092
I1
I1
ssS'ryan'
p4093
g71
(g76
tp4094
Rp4095
I18
I1
ssS'try'
p4096
g71
(g76
tp4097
Rp4098
I42
I1
sI45
I1
ssS'2.28'
p4099
g71
(g76
tp4100
Rp4101
I1
I1
ssS'2.23'
p4102
g71
(g76
tp4103
Rp4104
I97
I1
ssS'2.27'
p4105
g71
(g76
tp4106
Rp4107
I1
I3
ssS'crop'
p4108
g71
(g76
tp4109
Rp4110
I1
I5
sI6
I1
ssS'upco'
p4111
g71
(g76
tp4112
Rp4113
I27
I1
ssS'power'
p4114
g71
(g76
tp4115
Rp4116
I66
I1
ssS'chicago'
p4117
g71
(g76
tp4118
Rp4119
I97
I2
sI18
I1
sI59
I4
ssS'bdm'
p4120
g71
(g76
tp4121
Rp4122
I87
I3
ssS'waiting'
p4123
g71
(g76
tp4124
Rp4125
I49
I3
ssS'capital'
p4126
g71
(g76
tp4127
Rp4128
I56
I1
sI9
I1
sI50
I1
sI12
I1
sI29
I1
ssS'values'
p4129
g71
(g76
tp4130
Rp4131
I97
I2
ssS';'
p4132
g71
(g76
tp4133
Rp4134
I9
I1
sI10
I3
sI11
I1
sI12
I1
sI13
I1
sI14
I1
sI18
I2
sI23
I1
sI24
I1
sI27
I1
sI36
I1
sI37
I1
sI38
I1
sI41
I1
sI44
I2
sI45
I5
sI50
I1
sI53
I1
sI56
I1
sI64
I1
sI65
I1
sI66
I2
sI68
I2
sI71
I1
sI74
I1
sI82
I1
sI85
I1
sI86
I1
sI87
I1
sI89
I1
sI93
I1
sI96
I1
sI98
I1
ssS'led'
p4135
g71
(g76
tp4136
Rp4137
I96
I1
ssS'104,606,000'
p4138
g71
(g76
tp4139
Rp4140
I66
I1
ssS'exchange'
p4141
g71
(g76
tp4142
Rp4143
I96
I1
sI74
I1
sI59
I1
sI82
I1
ssS'commercial'
p4144
g71
(g76
tp4145
Rp4146
I80
I2
sI76
I2
sI45
I1
ssS'n.a'
p4147
g71
(g76
tp4148
Rp4149
I83
I1
sI5
I1
ssS'n.z'
p4150
g71
(g76
tp4151
Rp4152
I48
I2
ssS'39'
p4153
g71
(g76
tp4154
Rp4155
I49
I2
sI27
I1
ssS'cts'
p4156
g71
(g76
tp4157
Rp4158
I11
I2
sI12
I1
sI13
I7
sI14
I1
sI18
I4
sI22
I1
sI23
I3
sI24
I6
sI27
I3
sI36
I2
sI37
I6
sI38
I2
sI41
I6
sI50
I3
sI53
I2
sI56
I2
sI65
I2
sI66
I3
sI71
I2
sI74
I2
sI83
I2
sI85
I2
sI86
I2
sI87
I4
sI89
I2
sI93
I1
sI98
I3
ssS'32'
p4159
g71
(g76
tp4160
Rp4161
I45
I1
ssS'31'
p4162
g71
(g76
tp4163
Rp4164
I36
I1
sI13
I1
sI49
I1
sI83
I1
sI53
I1
sI23
I1
sI56
I1
ssS'30'
p4165
g71
(g76
tp4166
Rp4167
I74
I1
sI45
I1
sI18
I1
sI85
I1
sI56
I1
sI57
I1
sI42
I1
ssS'37'
p4168
g71
(g76
tp4169
Rp4170
I98
I1
sI23
I2
ssS'36'
p4171
g71
(g76
tp4172
Rp4173
I18
I1
ssS'35'
p4174
g71
(g76
tp4175
Rp4176
I56
I1
sI1
I1
sI53
I2
sI49
I2
sI23
I1
ssS'34'
p4177
g71
(g76
tp4178
Rp4179
I18
I1
sI11
I1
sI37
I1
ssS'4.98'
p4180
g71
(g76
tp4181
Rp4182
I97
I1
ssS'products'
p4183
g71
(g76
tp4184
Rp4185
I9
I2
sI6
I1
ssS'644'
p4186
g71
(g76
tp4187
Rp4188
I95
I2
ssS'4.90'
p4189
g71
(g76
tp4190
Rp4191
I97
I3
ssS'makes'
p4192
g71
(g76
tp4193
Rp4194
I10
I1
ssS'named'
p4195
g71
(g76
tp4196
Rp4197
I1
I1
ssS'stabilization'
p4198
g71
(g76
tp4199
Rp4200
I97
I1
ssS'363,000'
p4201
g71
(g76
tp4202
Rp4203
I98
I1
ssS'67.1'
p4204
g71
(g76
tp4205
Rp4206
I12
I1
ssS'apr'
p4207
g71
(g76
tp4208
Rp4209
I6
I7
ssS'337'
p4210
g71
(g76
tp4211
Rp4212
I23
I1
ssS'4.76'
p4213
g71
(g76
tp4214
Rp4215
I97
I1
ssS'4.75'
p4216
g71
(g76
tp4217
Rp4218
I97
I1
ssS'surpluses'
p4219
g71
(g76
tp4220
Rp4221
I47
I2
ssS'2,325'
p4222
g71
(g76
tp4223
Rp4224
I1
I1
ssS'standing'
p4225
g71
(g76
tp4226
Rp4227
I1
I1
ssS'fed'
p4228
g71
(g76
tp4229
Rp4230
I76
I2
sI77
I2
sI81
I2
sI92
I2
sI94
I2
sI95
I2
ssS'from'
p4231
g71
(g76
tp4232
Rp4233
I96
I1
sI97
I1
sI50
I2
sI40
I3
sI75
I1
sI42
I2
sI11
I1
sI13
I1
sI48
I1
sI81
I1
sI18
I5
sI19
I1
sI9
I1
sI23
I1
sI56
I3
sI27
I1
sI93
I1
ssS'&'
p4234
g71
(g76
tp4235
Rp4236
I9
I1
sI10
I3
sI11
I1
sI12
I1
sI13
I1
sI14
I1
sI18
I2
sI23
I1
sI24
I1
sI27
I1
sI36
I1
sI37
I1
sI38
I1
sI41
I1
sI44
I2
sI45
I5
sI50
I1
sI53
I1
sI56
I1
sI64
I1
sI65
I1
sI66
I2
sI68
I2
sI71
I1
sI74
I1
sI82
I1
sI85
I1
sI86
I1
sI87
I1
sI89
I1
sI93
I1
sI96
I1
sI98
I1
ssS'next'
p4237
g71
(g76
tp4238
Rp4239
I49
I1
sI59
I3
sI44
I1
sI97
I1
ssS'few'
p4240
g71
(g76
tp4241
Rp4242
I1
I1
ssS'doubt'
p4243
g71
(g76
tp4244
Rp4245
I1
I1
ssS'year-ago'
p4246
g71
(g76
tp4247
Rp4248
I18
I1
sI69
I2
ssS'reflects'
p4249
g71
(g76
tp4250
Rp4251
I5
I1
ssS'25.1'
p4252
g71
(g76
tp4253
Rp4254
I6
I1
ssS'1,780'
p4255
g71
(g76
tp4256
Rp4257
I1
I1
ssS'occurred'
p4258
g71
(g76
tp4259
Rp4260
I81
I1
ssS'41.1'
p4261
g71
(g76
tp4262
Rp4263
I13
I1
ssS'federally'
p4264
g71
(g76
tp4265
Rp4266
I50
I1
ssS'informally'
p4267
g71
(g76
tp4268
Rp4269
I75
I1
ssS'arranging'
p4270
g71
(g76
tp4271
Rp4272
I44
I1
ssS'43.4'
p4273
g71
(g76
tp4274
Rp4275
I13
I1
ssS'iii'
p4276
g71
(g76
tp4277
Rp4278
I5
I1
ssS'customer'
p4279
g71
(g76
tp4280
Rp4281
I45
I1
ssS'account'
p4282
g71
(g76
tp4283
Rp4284
I47
I1
ssS'this'
p4285
g71
(g76
tp4286
Rp4287
I1
I2
sI42
I1
sI59
I1
sI12
I1
sI45
I2
ssS'averaged'
p4288
g71
(g76
tp4289
Rp4290
I47
I1
ssS'61.5'
p4291
g71
(g76
tp4292
Rp4293
I6
I1
ssS'1.48'
p4294
g71
(g76
tp4295
Rp4296
I97
I1
ssS'61.8'
p4297
g71
(g76
tp4298
Rp4299
I6
I1
ssS'1.47'
p4300
g71
(g76
tp4301
Rp4302
I97
I1
ssS'1.41'
p4303
g71
(g76
tp4304
Rp4305
I97
I1
ssS'1.40'
p4306
g71
(g76
tp4307
Rp4308
I97
I1
ssS'n.y.'
p4309
g71
(g76
tp4310
Rp4311
I81
I1
sI77
I2
ssS'control'
p4312
g71
(g76
tp4313
Rp4314
I10
I1
ssS'process'
p4315
g71
(g76
tp4316
Rp4317
I68
I1
ssS'69,127,000'
p4318
g71
(g76
tp4319
Rp4320
I65
I1
ssS'comissaria'
p4321
g71
(g76
tp4322
Rp4323
I1
I5
ssS'tax'
p4324
g71
(g76
tp4325
Rp4326
I41
I2
sI18
I1
sI11
I1
sI29
I1
sI23
I1
ssS'high'
p4327
g71
(g76
tp4328
Rp4329
I45
I1
ssS'reserves'
p4330
g71
(g76
tp4331
Rp4332
I48
I2
sI5
I1
sI95
I2
ssS'united'
p4333
g71
(g76
tp4334
Rp4335
I18
I1
sI27
I1
sI44
I1
ssS'six'
p4336
g71
(g76
tp4337
Rp4338
I56
I1
sI13
I3
sI93
I1
ssS'delay'
p4339
g71
(g76
tp4340
Rp4341
I12
I1
ssS'brian'
p4342
g71
(g76
tp4343
Rp4344
I40
I1
ssS'9,140,000'
p4345
g71
(g76
tp4346
Rp4347
I40
I1
ssS'47.1'
p4348
g71
(g76
tp4349
Rp4350
I66
I3
ssS'revs'
p4351
g71
(g76
tp4352
Rp4353
I65
I2
sI66
I2
sI37
I2
sI74
I2
sI13
I2
sI14
I2
sI82
I1
sI24
I2
sI98
I2
sI27
I2
sI93
I1
ssS'47.2'
p4354
g71
(g76
tp4355
Rp4356
I66
I1
ssS'stock'
p4357
g71
(g76
tp4358
Rp4359
I96
I1
sI9
I3
sI10
I2
sI12
I1
sI45
I1
sI23
I2
ssS'22,345,718'
p4360
g71
(g76
tp4361
Rp4362
I69
I1
ssS'light'
p4363
g71
(g76
tp4364
Rp4365
I1
I1
ssS'lines'
p4366
g71
(g76
tp4367
Rp4368
I44
I4
ssS'or'
p4369
g71
(g76
tp4370
Rp4371
I96
I2
sI40
I1
sI41
I2
sI74
I1
sI11
I1
sI12
I1
sI13
I4
sI45
I2
sI82
I1
sI23
I3
sI56
I1
sI27
I1
sI93
I1
ssS'commodities'
p4372
g71
(g76
tp4373
Rp4374
I97
I1
sI19
I1
ssS'houston'
p4375
g71
(g76
tp4376
Rp4377
I10
I1
ssS'reuter'
p4378
g71
(g76
tp4379
Rp4380
I6
I1
ssS'producer'
p4381
g71
(g76
tp4382
Rp4383
I42
I1
sI75
I2
ssS'institutional'
p4384
g71
(g76
tp4385
Rp4386
I58
I1
ssS'13.'
p4387
g71
(g76
tp4388
Rp4389
I82
I1
sI23
I1
ssS'including'
p4390
g71
(g76
tp4391
Rp4392
I80
I1
sI44
I1
sI10
I1
sI12
I1
ssS'135'
p4393
g71
(g76
tp4394
Rp4395
I59
I2
ssS'1.80'
p4396
g71
(g76
tp4397
Rp4398
I97
I1
ssS'agricultural'
p4399
g71
(g76
tp4400
Rp4401
I97
I1
ssS'121,168'
p4402
g71
(g76
tp4403
Rp4404
I69
I1
ssS'industries'
p4405
g71
(g76
tp4406
Rp4407
I68
I2
sI44
I1
ssS'lb'
p4408
g71
(g76
tp4409
Rp4410
I22
I1
ssS'la'
p4411
g71
(g76
tp4412
Rp4413
I97
I1
ssS'temporao'
p4414
g71
(g76
tp4415
Rp4416
I1
I2
ssS'218.5'
p4417
g71
(g76
tp4418
Rp4419
I6
I1
ssS'ships'
p4420
g71
(g76
tp4421
Rp4422
I49
I2
sI59
I1
ssS'1.84'
p4423
g71
(g76
tp4424
Rp4425
I97
I1
ssS'lt'
p4426
g71
(g76
tp4427
Rp4428
I9
I1
sI10
I3
sI11
I1
sI12
I1
sI13
I1
sI14
I1
sI18
I2
sI23
I1
sI24
I1
sI27
I1
sI36
I1
sI37
I1
sI38
I1
sI41
I1
sI44
I2
sI45
I5
sI50
I1
sI53
I1
sI56
I1
sI64
I1
sI65
I1
sI66
I2
sI68
I2
sI71
I1
sI74
I1
sI82
I1
sI85
I1
sI86
I1
sI87
I1
sI89
I1
sI93
I1
sI96
I1
sI98
I1
ssS'flour'
p4429
g71
(g76
tp4430
Rp4431
I19
I3
ssS'polarizations'
p4432
g71
(g76
tp4433
Rp4434
I46
I1
ssS'cutting'
p4435
g71
(g76
tp4436
Rp4437
I22
I1
ssS'hands'
p4438
g71
(g76
tp4439
Rp4440
I1
I1
sI45
I1
ssS'7,041,000'
p4441
g71
(g76
tp4442
Rp4443
I41
I1
ssS'handy'
p4444
g71
(g76
tp4445
Rp4446
I41
I1
ssS'presidential'
p4447
g71
(g76
tp4448
Rp4449
I27
I1
ssS'purusant'
p4450
g71
(g76
tp4451
Rp4452
I74
I1
ssS'february'
p4453
g71
(g76
tp4454
Rp4455
I1
I3
sI5
I1
sI6
I2
sI12
I1
sI47
I1
sI80
I1
sI81
I1
sI89
I1
ssS'undertaking'
p4456
g71
(g76
tp4457
Rp4458
I42
I1
ssS'44,092,000'
p4459
g71
(g76
tp4460
Rp4461
I93
I1
ssS'registrations'
p4462
g71
(g76
tp4463
Rp4464
I6
I5
ssS'accompanied'
p4465
g71
(g76
tp4466
Rp4467
I47
I1
ssS'related'
p4468
g71
(g76
tp4469
Rp4470
I12
I1
ssS'books'
p4471
g71
(g76
tp4472
Rp4473
I80
I1
ssS'18.49'
p4474
g71
(g76
tp4475
Rp4476
I82
I1
ssS'82'
p4477
g71
(g76
tp4478
Rp4479
I12
I1
ssS'our'
p4480
g71
(g76
tp4481
Rp4482
I18
I1
ssS'80'
p4483
g71
(g76
tp4484
Rp4485
I65
I1
ssS'agriculture'
p4486
g71
(g76
tp4487
Rp4488
I57
I1
sI19
I1
sI5
I1
sI46
I1
ssS'special'
p4489
g71
(g76
tp4490
Rp4491
I41
I1
sI50
I2
sI83
I1
ssS'out'
p4492
g71
(g76
tp4493
Rp4494
I45
I1
ssS'2.34'
p4495
g71
(g76
tp4496
Rp4497
I5
I1
ssS'matrix'
p4498
g71
(g76
tp4499
Rp4500
I10
I1
ssS"'"
p4501
g71
(g76
tp4502
Rp4503
I40
I1
sI59
I1
ssS'rev'
p4504
g71
(g76
tp4505
Rp4506
I41
I2
ssS'cwt'
p4507
g71
(g76
tp4508
Rp4509
I97
I1
sI5
I2
ssS'potomac'
p4510
g71
(g76
tp4511
Rp4512
I66
I1
ssS'barley'
p4513
g71
(g76
tp4514
Rp4515
I5
I1
ssS'electronics'
p4516
g71
(g76
tp4517
Rp4518
I24
I1
ssS'announced'
p4519
g71
(g76
tp4520
Rp4521
I57
I1
sI19
I1
sI45
I1
sI47
I1
ssS'1630'
p4522
g71
(g76
tp4523
Rp4524
I81
I1
ssS'maize'
p4525
g71
(g76
tp4526
Rp4527
I6
I1
ssS'delegates'
p4528
g71
(g76
tp4529
Rp4530
I42
I2
sI75
I1
ssS'ill.'
p4531
g71
(g76
tp4532
Rp4533
I97
I2
ssS'2.50'
p4534
g71
(g76
tp4535
Rp4536
I97
I1
ssS'york'
p4537
g71
(g76
tp4538
Rp4539
I80
I3
sI1
I8
sI96
I1
sI78
I2
sI81
I1
ssS'regulatory'
p4540
g71
(g76
tp4541
Rp4542
I44
I1
ssS'broker-dealer'
p4543
g71
(g76
tp4544
Rp4545
I58
I1
ssS'additional'
p4546
g71
(g76
tp4547
Rp4548
I10
I2
ssS'could'
p4549
g71
(g76
tp4550
Rp4551
I45
I5
ssS'2.54'
p4552
g71
(g76
tp4553
Rp4554
I97
I2
ssS'times'
p4555
g71
(g76
tp4556
Rp4557
I1
I7
sI45
I1
ssS'997.1'
p4558
g71
(g76
tp4559
Rp4560
I14
I1
ssS'ltd'
p4561
g71
(g76
tp4562
Rp4563
I18
I1
sI38
I1
ssS'south'
p4564
g71
(g76
tp4565
Rp4566
I49
I1
sI59
I1
sI44
I1
ssS'snyder'
p4567
g71
(g76
tp4568
Rp4569
I45
I1
ssS'owned'
p4570
g71
(g76
tp4571
Rp4572
I29
I1
ssS'improvements'
p4573
g71
(g76
tp4574
Rp4575
I10
I1
ssS'quality'
p4576
g71
(g76
tp4577
Rp4578
I1
I1
ssS'destinations'
p4579
g71
(g76
tp4580
Rp4581
I1
I1
ssS'management'
p4582
g71
(g76
tp4583
Rp4584
I45
I6
ssS'feedgrain'
p4585
g71
(g76
tp4586
Rp4587
I5
I1
ssS'divs'
p4588
g71
(g76
tp4589
Rp4590
I87
I1
ssS'system'
p4591
g71
(g76
tp4592
Rp4593
I45
I1
ssS'their'
p4594
g71
(g76
tp4595
Rp4596
I96
I1
sI1
I1
sI75
I1
sI6
I1
ssS'attack'
p4597
g71
(g76
tp4598
Rp4599
I45
I1
ssS'evansville'
p4600
g71
(g76
tp4601
Rp4602
I97
I1
ssS'final'
p4603
g71
(g76
tp4604
Rp4605
I1
I1
sI46
I1
ssS'earmarked'
p4606
g71
(g76
tp4607
Rp4608
I57
I1
ssS'completed'
p4609
g71
(g76
tp4610
Rp4611
I10
I1
sI44
I1
ssS'acquire'
p4612
g71
(g76
tp4613
Rp4614
I10
I1
ssS'4.45'
p4615
g71
(g76
tp4616
Rp4617
I5
I1
ssS'july'
p4618
g71
(g76
tp4619
Rp4620
I1
I2
sI5
I1
ssS'completes'
p4621
g71
(g76
tp4622
Rp4623
I10
I1
ssS'cyl'
p4624
g71
(g76
tp4625
Rp4626
I96
I1
ssS'9.0'
p4627
g71
(g76
tp4628
Rp4629
I6
I1
ssS'maybe'
p4630
g71
(g76
tp4631
Rp4632
I45
I1
ssS'31.'
p4633
g71
(g76
tp4634
Rp4635
I46
I1
ssS'1.4'
p4636
g71
(g76
tp4637
Rp4638
I18
I1
sI66
I1
ssS'1.5'
p4639
g71
(g76
tp4640
Rp4641
I57
I2
sI38
I1
ssS'1.7'
p4642
g71
(g76
tp4643
Rp4644
I86
I1
ssS'1.1'
p4645
g71
(g76
tp4646
Rp4647
I38
I1
ssS'1.3'
p4648
g71
(g76
tp4649
Rp4650
I66
I1
ssS'unchanged'
p4651
g71
(g76
tp4652
Rp4653
I42
I1
ssS'1.9'
p4654
g71
(g76
tp4655
Rp4656
I82
I1
ssS'tonight'
p4657
g71
(g76
tp4658
Rp4659
I75
I1
ssS'have'
p4660
g71
(g76
tp4661
Rp4662
I1
I2
sI12
I1
sI5
I1
sI57
I1
ssS'mii'
p4663
g71
(g76
tp4664
Rp4665
I44
I1
ssS'129,000'
p4666
g71
(g76
tp4667
Rp4668
I98
I1
ssS'lugano'
p4669
g71
(g76
tp4670
Rp4671
I10
I1
ssS'sevice'
p4672
g71
(g76
tp4673
Rp4674
I45
I1
ssS'agency'
p4675
g71
(g76
tp4676
Rp4677
I49
I2
ssS'which'
p4678
g71
(g76
tp4679
Rp4680
I1
I1
sI42
I1
sI75
I1
sI50
I1
sI46
I1
ssS'1.34'
p4681
g71
(g76
tp4682
Rp4683
I97
I2
sI93
I1
ssS'1.35'
p4684
g71
(g76
tp4685
Rp4686
I5
I1
ssS'worldwide'
p4687
g71
(g76
tp4688
Rp4689
I10
I1
ssS'who'
p4690
g71
(g76
tp4691
Rp4692
I45
I1
ssS'oilseed'
p4693
g71
(g76
tp4694
Rp4695
I6
I1
ssS'combustion'
p4696
g71
(g76
tp4697
Rp4698
I85
I1
ssS'eight'
p4699
g71
(g76
tp4700
Rp4701
I81
I1
sI71
I1
ssS'comparison'
p4702
g71
(g76
tp4703
Rp4704
I59
I4
ssS'payment'
p4705
g71
(g76
tp4706
Rp4707
I13
I1
ssS'diluted'
p4708
g71
(g76
tp4709
Rp4710
I82
I1
ssS'agreed'
p4711
g71
(g76
tp4712
Rp4713
I44
I1
ssS'cruzado'
p4714
g71
(g76
tp4715
Rp4716
I47
I1
ssS'catapulted'
p4717
g71
(g76
tp4718
Rp4719
I45
I1
ssS'economist'
p4720
g71
(g76
tp4721
Rp4722
I47
I1
ssS'earned'
p4723
g71
(g76
tp4724
Rp4725
I12
I1
sI45
I1
ssS'('
p4726
g71
(g76
tp4727
Rp4728
I97
I1
sI5
I2
sI6
I12
sI75
I1
sI46
I1
sI81
I1
sI57
I1
sI59
I9
sI29
I1
sI69
I1
ssS'should'
p4729
g71
(g76
tp4730
Rp4731
I18
I2
ssS'jan'
p4732
g71
(g76
tp4733
Rp4734
I66
I1
sI13
I1
ssS'16,568,000'
p4735
g71
(g76
tp4736
Rp4737
I69
I1
ssS'printers'
p4738
g71
(g76
tp4739
Rp4740
I10
I1
ssS'he'
p4741
g71
(g76
tp4742
Rp4743
I18
I2
ssS'thousands'
p4744
g71
(g76
tp4745
Rp4746
I45
I1
sI6
I1
ssS'regularly'
p4747
g71
(g76
tp4748
Rp4749
I45
I1
ssS'means'
p4750
g71
(g76
tp4751
Rp4752
I1
I1
ssS'crumbling'
p4753
g71
(g76
tp4754
Rp4755
I47
I1
ssS'syst'
p4756
g71
(g76
tp4757
Rp4758
I89
I1
ssS'overall'
p4759
g71
(g76
tp4760
Rp4761
I18
I1
ssS'120'
p4762
g71
(g76
tp4763
Rp4764
I59
I1
ssS'bean'
p4765
g71
(g76
tp4766
Rp4767
I1
I2
ssS'149.8'
p4768
g71
(g76
tp4769
Rp4770
I6
I1
ssS'125'
p4771
g71
(g76
tp4772
Rp4773
I59
I3
ssS'areas'
p4774
g71
(g76
tp4775
Rp4776
I1
I2
ssS'shr'
p4777
g71
(g76
tp4778
Rp4779
I65
I2
sI66
I3
sI37
I2
sI38
I2
sI41
I2
sI74
I2
sI11
I2
sI13
I4
sI14
I2
sI82
I2
sI24
I2
sI98
I2
sI27
I3
sI93
I1
ssS'taxes'
p4780
g71
(g76
tp4781
Rp4782
I64
I1
ssS'she'
p4783
g71
(g76
tp4784
Rp4785
I45
I2
ssS'ohio'
p4786
g71
(g76
tp4787
Rp4788
I59
I2
sI12
I2
ssS'fixed'
p4789
g71
(g76
tp4790
Rp4791
I47
I1
ssS'lubbck'
p4792
g71
(g76
tp4793
Rp4794
I97
I1
ssS'view'
p4795
g71
(g76
tp4796
Rp4797
I1
I1
ssS'qtr'
p4798
g71
(g76
tp4799
Rp4800
I65
I1
sI98
I1
sI37
I1
sI38
I1
sI41
I2
sI74
I3
sI11
I1
sI12
I1
sI13
I2
sI14
I1
sI18
I1
sI24
I1
sI27
I1
ssS'34.8'
p4801
g71
(g76
tp4802
Rp4803
I6
I1
ssS'acquired'
p4804
g71
(g76
tp4805
Rp4806
I56
I1
sI68
I1
sI45
I1
ssS'national'
p4807
g71
(g76
tp4808
Rp4809
I80
I1
sI81
I1
sI29
I1
sI69
I1
sI5
I2
ssS'officials'
p4810
g71
(g76
tp4811
Rp4812
I45
I1
ssS'sunoil'
p4813
g71
(g76
tp4814
Rp4815
I6
I1
ssS'5/14/82'
p4816
g71
(g76
tp4817
Rp4818
I5
I1
ssS'dlr'
p4819
g71
(g76
tp4820
Rp4821
I56
I1
sI47
I1
sI14
I1
sI23
I1
ssS':'
p4822
g71
(g76
tp4823
Rp4824
I66
I1
sI37
I1
sI6
I3
sI41
I1
sI74
I1
sI11
I1
sI13
I1
sI49
I5
sI82
I1
sI87
I1
sI24
I1
sI27
I1
sI93
I1
ssS'routine'
p4825
g71
(g76
tp4826
Rp4827
I1
I1
ssS'ends'
p4828
g71
(g76
tp4829
Rp4830
I1
I1
ssS'72,000'
p4831
g71
(g76
tp4832
Rp4833
I24
I1
ssS'opening'
p4834
g71
(g76
tp4835
Rp4836
I45
I1
ssS'5.36'
p4837
g71
(g76
tp4838
Rp4839
I5
I2
ssS'fabricator'
p4840
g71
(g76
tp4841
Rp4842
I68
I1
ssS'approval'
p4843
g71
(g76
tp4844
Rp4845
I44
I1
ssS'2.40'
p4846
g71
(g76
tp4847
Rp4848
I5
I1
ssS'actual'
p4849
g71
(g76
tp4850
Rp4851
I46
I1
ssS'commenting'
p4852
g71
(g76
tp4853
Rp4854
I81
I1
ssS'2.49'
p4855
g71
(g76
tp4856
Rp4857
I97
I1
ssS'equal'
p4858
g71
(g76
tp4859
Rp4860
I10
I1
ssS'32.9'
p4861
g71
(g76
tp4862
Rp4863
I6
I1
ssS'april'
p4864
g71
(g76
tp4865
Rp4866
I83
I1
sI37
I1
sI71
I1
sI9
I2
sI42
I2
sI75
I1
sI12
I1
sI82
I1
sI19
I1
sI85
I2
sI23
I1
sI24
I1
sI87
I1
ssS'grain'
p4867
g71
(g76
tp4868
Rp4869
I97
I1
sI5
I1
sI6
I1
ssS'lo'
p4870
g71
(g76
tp4871
Rp4872
I97
I1
ssS'adjusted'
p4873
g71
(g76
tp4874
Rp4875
I29
I1
sI46
I1
ssS'29.71'
p4876
g71
(g76
tp4877
Rp4878
I82
I1
ssS'co'
p4879
g71
(g76
tp4880
Rp4881
I18
I1
sI12
I1
sI66
I1
sI22
I1
ssS'wall'
p4882
g71
(g76
tp4883
Rp4884
I45
I1
ssS'allocated'
p4885
g71
(g76
tp4886
Rp4887
I56
I1
ssS'quotas'
p4888
g71
(g76
tp4889
Rp4890
I42
I1
ssS'cent'
p4891
g71
(g76
tp4892
Rp4893
I98
I1
sI22
I2
ssS'offers'
p4894
g71
(g76
tp4895
Rp4896
I45
I1
ssS'proposal'
p4897
g71
(g76
tp4898
Rp4899
I42
I3
sI75
I2
ssS'waste'
p4900
g71
(g76
tp4901
Rp4902
I45
I6
ssS'>'
p4903
g71
(g76
tp4904
Rp4905
I9
I1
sI10
I3
sI11
I1
sI12
I1
sI13
I1
sI14
I1
sI18
I2
sI23
I1
sI24
I1
sI27
I1
sI36
I1
sI37
I1
sI38
I1
sI41
I1
sI44
I2
sI45
I5
sI50
I1
sI53
I1
sI56
I1
sI64
I1
sI65
I1
sI66
I2
sI68
I2
sI71
I1
sI74
I1
sI82
I1
sI85
I1
sI86
I1
sI87
I1
sI89
I1
sI93
I1
sI96
I1
sI98
I1
ssS'corresponding'
p4906
g71
(g76
tp4907
Rp4908
I56
I1
ssS'sufficient'
p4909
g71
(g76
tp4910
Rp4911
I47
I1
ssS'shortfall'
p4912
g71
(g76
tp4913
Rp4914
I42
I1
sI75
I1
ssS'55,513,000'
p4915
g71
(g76
tp4916
Rp4917
I65
I1
ssS'graphics'
p4918
g71
(g76
tp4919
Rp4920
I56
I1
ssS'mths'
p4921
g71
(g76
tp4922
Rp4923
I24
I1
sI66
I2
sI13
I2
sI14
I1
ssS'an'
p4924
g71
(g76
tp4925
Rp4926
I1
I1
sI9
I1
sI42
I3
sI45
I1
sI46
I1
sI18
I1
sI19
I1
sI56
I2
sI10
I1
ssS'present'
p4927
g71
(g76
tp4928
Rp4929
I42
I2
ssS'homes'
p4930
g71
(g76
tp4931
Rp4932
I29
I1
ssS'66.19'
p4933
g71
(g76
tp4934
Rp4935
I58
I1
ssS'value'
p4936
g71
(g76
tp4937
Rp4938
I56
I1
sI47
I1
ssS'will'
p4939
g71
(g76
tp4940
Rp4941
I64
I2
sI1
I1
sI42
I1
sI75
I3
sI12
I1
sI45
I1
sI18
I3
sI19
I1
sI56
I1
ssS'country'
p4942
g71
(g76
tp4943
Rp4944
I47
I1
ssS'almost'
p4945
g71
(g76
tp4946
Rp4947
I1
I1
ssS'vi'
p4948
g71
(g76
tp4949
Rp4950
I5
I2
ssS'556.7'
p4951
g71
(g76
tp4952
Rp4953
I41
I1
ssS'arrangements'
p4954
g71
(g76
tp4955
Rp4956
I18
I1
ssS'avg'
p4957
g71
(g76
tp4958
Rp4959
I65
I1
sI66
I2
sI98
I1
sI13
I2
sI38
I2
ssS')'
p4960
g71
(g76
tp4961
Rp4962
I97
I1
sI5
I2
sI6
I12
sI75
I1
sI46
I1
sI81
I1
sI57
I1
sI59
I9
sI29
I1
sI69
I1
ssS'1.65'
p4963
g71
(g76
tp4964
Rp4965
I5
I1
ssS'member'
p4966
g71
(g76
tp4967
Rp4968
I69
I1
ssS'1.64'
p4969
g71
(g76
tp4970
Rp4971
I97
I1
ssS'largest'
p4972
g71
(g76
tp4973
Rp4974
I45
I1
ssS'units'
p4975
g71
(g76
tp4976
Rp4977
I64
I2
sI29
I2
ssS'negotiate'
p4978
g71
(g76
tp4979
Rp4980
I42
I1
ssS'difficult'
p4981
g71
(g76
tp4982
Rp4983
I45
I1
ssS'phi'
p4984
g71
(g76
tp4985
Rp4986
I82
I1
ssS'ball'
p4987
g71
(g76
tp4988
Rp4989
I45
I1
ssS'reporting'
p4990
g71
(g76
tp4991
Rp4992
I56
I1
sI69
I1
ssS'nationally'
p4993
g71
(g76
tp4994
Rp4995
I80
I1
ssS'2.39'
p4996
g71
(g76
tp4997
Rp4998
I97
I1
ssS'203,000'
p4999
g71
(g76
tp5000
Rp5001
I24
I1
ssS'transaction'
p5002
g71
(g76
tp5003
Rp5004
I64
I1
ssS'off'
p5005
g71
(g76
tp5006
Rp5007
I18
I1
ssS'i'
p5008
g71
(g76
tp5009
Rp5010
I45
I1
sI5
I1
ssS'well'
p5011
g71
(g76
tp5012
Rp5013
I12
I1
ssS'356'
p5014
g71
(g76
tp5015
Rp5016
I58
I1
ssS'1.28'
p5017
g71
(g76
tp5018
Rp5019
I40
I1
ssS'novebmer'
p5020
g71
(g76
tp5021
Rp5022
I83
I1
ssS'sets'
p5023
g71
(g76
tp5024
Rp5025
I50
I1
sI71
I1
sI44
I1
sI23
I1
ssS'1.22'
p5026
g71
(g76
tp5027
Rp5028
I42
I1
sI38
I1
ssS'1.21'
p5029
g71
(g76
tp5030
Rp5031
I27
I1
ssS'1.27'
p5032
g71
(g76
tp5033
Rp5034
I18
I1
ssS'1.25'
p5035
g71
(g76
tp5036
Rp5037
I1
I3
sI82
I2
ssS'1.24'
p5038
g71
(g76
tp5039
Rp5040
I5
I1
ssS'tuccillo'
p5041
g71
(g76
tp5042
Rp5043
I29
I1
ssS'domestic'
p5044
g71
(g76
tp5045
Rp5046
I47
I1
ssS'41'
p5047
g71
(g76
tp5048
Rp5049
I49
I1
ssS'residential'
p5050
g71
(g76
tp5051
Rp5052
I45
I1
ssS'smith'
p5053
g71
(g76
tp5054
Rp5055
I1
I5
ssS'deposits'
p5056
g71
(g76
tp5057
Rp5058
I11
I1
ssS'day'
p5059
g71
(g76
tp5060
Rp5061
I97
I1
sI82
I1
ssS'natl'
p5062
g71
(g76
tp5063
Rp5064
I5
I2
ssS'gmt'
p5065
g71
(g76
tp5066
Rp5067
I81
I1
ssS'petrochemical'
p5068
g71
(g76
tp5069
Rp5070
I68
I2
ssS'increased'
p5071
g71
(g76
tp5072
Rp5073
I58
I1
sI47
I1
ssS'government'
p5074
g71
(g76
tp5075
Rp5076
I49
I1
sI97
I1
ssS'crushed'
p5077
g71
(g76
tp5078
Rp5079
I69
I1
ssS'increases'
p5080
g71
(g76
tp5081
Rp5082
I87
I1
ssS'five'
p5083
g71
(g76
tp5084
Rp5085
I83
I1
sI59
I1
sI10
I1
sI11
I1
sI9
I1
ssS'joliet'
p5086
g71
(g76
tp5087
Rp5088
I59
I1
ssS'loss'
p5089
g71
(g76
tp5090
Rp5091
I64
I1
sI98
I4
sI37
I4
sI41
I9
sI13
I2
sI56
I2
sI24
I2
ssS'like'
p5092
g71
(g76
tp5093
Rp5094
I45
I1
ssS'excluding'
p5095
g71
(g76
tp5096
Rp5097
I80
I1
ssS'payments'
p5098
g71
(g76
tp5099
Rp5100
I47
I1
ssS'24.5'
p5101
g71
(g76
tp5102
Rp5103
I6
I1
ssS'95.30'
p5104
g71
(g76
tp5105
Rp5106
I82
I1
ssS'backlog'
p5107
g71
(g76
tp5108
Rp5109
I56
I1
sI49
I2
ssS'exceed'
p5110
g71
(g76
tp5111
Rp5112
I10
I1
sI18
I3
ssS'because'
p5113
g71
(g76
tp5114
Rp5115
I12
I1
ssS'264.2'
p5116
g71
(g76
tp5117
Rp5118
I65
I1
ssS'114'
p5119
g71
(g76
tp5120
Rp5121
I80
I1
ssS'growth'
p5122
g71
(g76
tp5123
Rp5124
I40
I1
sI45
I2
ssS'export'
p5125
g71
(g76
tp5126
Rp5127
I1
I1
sI42
I1
sI19
I2
sI6
I2
ssS'home'
p5128
g71
(g76
tp5129
Rp5130
I47
I1
ssS'transport'
p5131
g71
(g76
tp5132
Rp5133
I44
I1
ssS'22.2'
p5134
g71
(g76
tp5135
Rp5136
I38
I1
ssS'est'
p5137
g71
(g76
tp5138
Rp5139
I81
I1
ssS'near-record'
p5140
g71
(g76
tp5141
Rp5142
I29
I1
ssS'avoid'
p5143
g71
(g76
tp5144
Rp5145
I47
I1
ssS'emhart'
p5146
g71
(g76
tp5147
Rp5148
I53
I1
ssS'does'
p5149
g71
(g76
tp5150
Rp5151
I45
I2
ssS'although'
p5152
g71
(g76
tp5153
Rp5154
I1
I1
sI47
I1
ssS'offset'
p5155
g71
(g76
tp5156
Rp5157
I64
I1
ssS'loans'
p5158
g71
(g76
tp5159
Rp5160
I80
I3
sI11
I1
sI77
I2
ssS'100.9'
p5161
g71
(g76
tp5162
Rp5163
I6
I1
ssS'stage'
p5164
g71
(g76
tp5165
Rp5166
I1
I1
ssS'payout'
p5167
g71
(g76
tp5168
Rp5169
I89
I1
sI50
I1
sI23
I1
ssS'about'
p5170
g71
(g76
tp5171
Rp5172
I56
I1
sI45
I1
ssS'25.2'
p5173
g71
(g76
tp5174
Rp5175
I27
I1
ssS'sept/nov'
p5176
g71
(g76
tp5177
Rp5178
I59
I1
ssS'25.7'
p5179
g71
(g76
tp5180
Rp5181
I38
I1
ssS'23.6'
p5182
g71
(g76
tp5183
Rp5184
I6
I1
ssS'dominion'
p5185
g71
(g76
tp5186
Rp5187
I66
I1
ssS'previously'
p5188
g71
(g76
tp5189
Rp5190
I40
I1
sI57
I1
sI29
I1
ssS'warrants'
p5191
g71
(g76
tp5192
Rp5193
I10
I3
ssS'cocoa'
p5194
g71
(g76
tp5195
Rp5196
I1
I7
ssS'2.10'
p5197
g71
(g76
tp5198
Rp5199
I97
I2
ssS'utility'
p5200
g71
(g76
tp5201
Rp5202
I68
I1
ssS'1986'
p5203
g71
(g76
tp5204
Rp5205
I83
I1
sI5
I1
sI6
I1
sI47
I1
sI40
I2
sI41
I2
sI74
I2
sI13
I1
sI46
I1
sI45
I1
sI18
I1
sI19
I1
sI56
I1
sI27
I1
sI93
I1
ssS'2.52'
p5206
g71
(g76
tp5207
Rp5208
I40
I1
sI97
I1
ssS'mississippi'
p5209
g71
(g76
tp5210
Rp5211
I59
I3
ssS'1985'
p5212
g71
(g76
tp5213
Rp5214
I27
I1
sI40
I1
sI74
I1
sI11
I1
sI47
I1
ssS'1983'
p5215
g71
(g76
tp5216
Rp5217
I45
I1
ssS'2.55'
p5218
g71
(g76
tp5219
Rp5220
I5
I3
ssS'1981'
p5221
g71
(g76
tp5222
Rp5223
I5
I2
ssS'transfer'
p5224
g71
(g76
tp5225
Rp5226
I44
I3
ssS'housing'
p5227
g71
(g76
tp5228
Rp5229
I29
I1
ssS'2.58'
p5230
g71
(g76
tp5231
Rp5232
I97
I2
sI45
I1
ssS'1988'
p5233
g71
(g76
tp5234
Rp5235
I18
I2
sI23
I1
ssS'awarded'
p5236
g71
(g76
tp5237
Rp5238
I19
I2
ssS'9.4'
p5239
g71
(g76
tp5240
Rp5241
I38
I1
ssS'june/july'
p5242
g71
(g76
tp5243
Rp5244
I1
I3
ssS'9.2'
p5245
g71
(g76
tp5246
Rp5247
I96
I1
ssS'buy'
p5248
g71
(g76
tp5249
Rp5250
I10
I1
ssS'north'
p5251
g71
(g76
tp5252
Rp5253
I49
I1
sI19
I2
ssS'funds'
p5254
g71
(g76
tp5255
Rp5256
I58
I5
sI30
I2
ssS'but'
p5257
g71
(g76
tp5258
Rp5259
I10
I1
sI47
I3
sI29
I1
sI45
I2
ssS'delivery'
p5260
g71
(g76
tp5261
Rp5262
I10
I1
sI59
I1
ssS'repeated'
p5263
g71
(g76
tp5264
Rp5265
I18
I1
ssS'lowered'
p5266
g71
(g76
tp5267
Rp5268
I96
I1
ssS'gain'
p5269
g71
(g76
tp5270
Rp5271
I64
I2
sI66
I1
sI11
I1
sI74
I1
sI93
I1
ssS'highest'
p5272
g71
(g76
tp5273
Rp5274
I29
I1
ssS'entrepreuers'
p5275
g71
(g76
tp5276
Rp5277
I45
I1
ssS'5,050,044'
p5278
g71
(g76
tp5279
Rp5280
I27
I1
ssS'720.4'
p5281
g71
(g76
tp5282
Rp5283
I58
I1
sI30
I2
ssS'made'
p5284
g71
(g76
tp5285
Rp5286
I1
I1
sI29
I1
ssS'3,320,000'
p5287
g71
(g76
tp5288
Rp5289
I74
I1
ssS'whether'
p5290
g71
(g76
tp5291
Rp5292
I18
I1
sI45
I1
ssS'official'
p5293
g71
(g76
tp5294
Rp5295
I48
I2
ssS'4,104,000'
p5296
g71
(g76
tp5297
Rp5298
I13
I1
ssS'record'
p5299
g71
(g76
tp5300
Rp5301
I64
I1
sI36
I1
sI37
I1
sI71
I1
sI9
I1
sI87
I1
sI82
I1
sI83
I1
sI53
I1
sI86
I1
sI23
I2
sI24
I1
sI89
I1
sI29
I1
sI85
I1
ssS'below'
p5302
g71
(g76
tp5303
Rp5304
I12
I1
ssS'cake'
p5305
g71
(g76
tp5306
Rp5307
I1
I1
ssS'200,000'
p5308
g71
(g76
tp5309
Rp5310
I10
I2
ssS'distribution'
p5311
g71
(g76
tp5312
Rp5313
I75
I1
sI42
I2
sI50
I1
sI45
I1
ssS'4,450'
p5314
g71
(g76
tp5315
Rp5316
I1
I1
ssS'realtors'
p5317
g71
(g76
tp5318
Rp5319
I29
I1
ssS'pik'
p5320
g71
(g76
tp5321
Rp5322
I97
I1
ssS'universal'
p5323
g71
(g76
tp5324
Rp5325
I27
I1
ssS'fertilizers'
p5326
g71
(g76
tp5327
Rp5328
I45
I1
ssS'resumption'
p5329
g71
(g76
tp5330
Rp5331
I42
I1
sI75
I1
ssS'periods'
p5332
g71
(g76
tp5333
Rp5334
I27
I1
sI13
I1
ssS"o'malley"
p5335
g71
(g76
tp5336
Rp5337
I40
I1
ssS'inc'
p5338
g71
(g76
tp5339
Rp5340
I9
I1
sI10
I2
sI11
I1
sI12
I1
sI13
I1
sI14
I1
sI18
I1
sI23
I1
sI24
I1
sI36
I1
sI44
I3
sI45
I2
sI56
I1
sI64
I1
sI65
I1
sI66
I1
sI68
I3
sI74
I1
sI85
I1
sI87
I1
sI89
I1
sI93
I1
ssS'mutual'
p5341
g71
(g76
tp5342
Rp5343
I96
I1
sI58
I1
sI30
I2
ssS'compared'
p5344
g71
(g76
tp5345
Rp5346
I48
I1
sI56
I1
sI69
I2
sI46
I1
ssS'46'
p5347
g71
(g76
tp5348
Rp5349
I41
I1
sI66
I1
ssS'corporation'
p5350
g71
(g76
tp5351
Rp5352
I57
I1
sI19
I1
sI97
I1
ssS'45'
p5353
g71
(g76
tp5354
Rp5355
I1
I1
sI38
I1
ssS'42'
p5356
g71
(g76
tp5357
Rp5358
I24
I1
ssS'40'
p5359
g71
(g76
tp5360
Rp5361
I10
I1
sI18
I2
ssS'illinois'
p5362
g71
(g76
tp5363
Rp5364
I59
I4
ssS'saviour'
p5365
g71
(g76
tp5366
Rp5367
I47
I1
ssS'inc.'
p5368
g71
(g76
tp5369
Rp5370
I45
I1
ssS'2-1/2'
p5371
g71
(g76
tp5372
Rp5373
I59
I2
ssS'151.1'
p5374
g71
(g76
tp5375
Rp5376
I56
I1
sI13
I1
ssS'repeat'
p5377
g71
(g76
tp5378
Rp5379
I47
I1
ssS'151.9'
p5380
g71
(g76
tp5381
Rp5382
I58
I1
ssS'march/april'
p5383
g71
(g76
tp5384
Rp5385
I1
I3
ssS'june'
p5386
g71
(g76
tp5387
Rp5388
I56
I1
ssS'807,000'
p5389
g71
(g76
tp5390
Rp5391
I11
I1
ssS'hnh'
p5392
g71
(g76
tp5393
Rp5394
I41
I1
ssS'portion'
p5395
g71
(g76
tp5396
Rp5397
I29
I1
ssS'48,741,000'
p5398
g71
(g76
tp5399
Rp5400
I65
I1
ssS'tonnes'
p5401
g71
(g76
tp5402
Rp5403
I19
I1
sI69
I3
sI6
I1
ssS'145.3'
p5404
g71
(g76
tp5405
Rp5406
I6
I1
ssS'commencement'
p5407
g71
(g76
tp5408
Rp5409
I83
I1
sssb.